
CAR_SM.elf:     file format elf32-avr

Sections:
Idx Name          Size      VMA       LMA       File off  Algn
  0 .text         00001bba  00000000  00000000  00000094  2**1
                  CONTENTS, ALLOC, LOAD, READONLY, CODE
  1 .data         0000002e  00800060  00001bba  00001c4e  2**0
                  CONTENTS, ALLOC, LOAD, DATA
  2 .bss          00000046  0080008e  0080008e  00001c7c  2**0
                  ALLOC
  3 .stab         00001bcc  00000000  00000000  00001c7c  2**2
                  CONTENTS, READONLY, DEBUGGING
  4 .stabstr      00000583  00000000  00000000  00003848  2**0
                  CONTENTS, READONLY, DEBUGGING
  5 .debug_aranges 000001c0  00000000  00000000  00003dd0  2**3
                  CONTENTS, READONLY, DEBUGGING
  6 .debug_info   00002534  00000000  00000000  00003f90  2**0
                  CONTENTS, READONLY, DEBUGGING
  7 .debug_abbrev 00000bdd  00000000  00000000  000064c4  2**0
                  CONTENTS, READONLY, DEBUGGING
  8 .debug_line   00000b1b  00000000  00000000  000070a1  2**0
                  CONTENTS, READONLY, DEBUGGING
  9 .debug_frame  00000c58  00000000  00000000  00007bbc  2**2
                  CONTENTS, READONLY, DEBUGGING
 10 .debug_str    00000f25  00000000  00000000  00008814  2**0
                  CONTENTS, READONLY, DEBUGGING
 11 .debug_loc    000023a2  00000000  00000000  00009739  2**0
                  CONTENTS, READONLY, DEBUGGING

Disassembly of section .text:

00000000 <__vectors>:
       0:	0c 94 2a 00 	jmp	0x54	; 0x54 <__ctors_end>
       4:	0c 94 81 02 	jmp	0x502	; 0x502 <__vector_1>
       8:	0c 94 a8 02 	jmp	0x550	; 0x550 <__vector_2>
       c:	0c 94 cf 02 	jmp	0x59e	; 0x59e <__vector_3>
      10:	0c 94 f6 02 	jmp	0x5ec	; 0x5ec <__vector_4>
      14:	0c 94 1d 03 	jmp	0x63a	; 0x63a <__vector_5>
      18:	0c 94 44 03 	jmp	0x688	; 0x688 <__vector_6>
      1c:	0c 94 6b 03 	jmp	0x6d6	; 0x6d6 <__vector_7>
      20:	0c 94 92 03 	jmp	0x724	; 0x724 <__vector_8>
      24:	0c 94 b9 03 	jmp	0x772	; 0x772 <__vector_9>
      28:	0c 94 e0 03 	jmp	0x7c0	; 0x7c0 <__vector_10>
      2c:	0c 94 07 04 	jmp	0x80e	; 0x80e <__vector_11>
      30:	0c 94 2e 04 	jmp	0x85c	; 0x85c <__vector_12>
      34:	0c 94 55 04 	jmp	0x8aa	; 0x8aa <__vector_13>
      38:	0c 94 7c 04 	jmp	0x8f8	; 0x8f8 <__vector_14>
      3c:	0c 94 a3 04 	jmp	0x946	; 0x946 <__vector_15>
      40:	0c 94 ca 04 	jmp	0x994	; 0x994 <__vector_16>
      44:	0c 94 f1 04 	jmp	0x9e2	; 0x9e2 <__vector_17>
      48:	0c 94 18 05 	jmp	0xa30	; 0xa30 <__vector_18>
      4c:	0c 94 3f 05 	jmp	0xa7e	; 0xa7e <__vector_19>
      50:	0c 94 66 05 	jmp	0xacc	; 0xacc <__vector_20>

00000054 <__ctors_end>:
      54:	11 24       	eor	r1, r1
      56:	1f be       	out	0x3f, r1	; 63
      58:	cf e5       	ldi	r28, 0x5F	; 95
      5a:	d8 e0       	ldi	r29, 0x08	; 8
      5c:	de bf       	out	0x3e, r29	; 62
      5e:	cd bf       	out	0x3d, r28	; 61

00000060 <__do_copy_data>:
      60:	10 e0       	ldi	r17, 0x00	; 0
      62:	a0 e6       	ldi	r26, 0x60	; 96
      64:	b0 e0       	ldi	r27, 0x00	; 0
      66:	ea eb       	ldi	r30, 0xBA	; 186
      68:	fb e1       	ldi	r31, 0x1B	; 27
      6a:	02 c0       	rjmp	.+4      	; 0x70 <__do_copy_data+0x10>
      6c:	05 90       	lpm	r0, Z+
      6e:	0d 92       	st	X+, r0
      70:	ae 38       	cpi	r26, 0x8E	; 142
      72:	b1 07       	cpc	r27, r17
      74:	d9 f7       	brne	.-10     	; 0x6c <__do_copy_data+0xc>

00000076 <__do_clear_bss>:
      76:	10 e0       	ldi	r17, 0x00	; 0
      78:	ae e8       	ldi	r26, 0x8E	; 142
      7a:	b0 e0       	ldi	r27, 0x00	; 0
      7c:	01 c0       	rjmp	.+2      	; 0x80 <.do_clear_bss_start>

0000007e <.do_clear_bss_loop>:
      7e:	1d 92       	st	X+, r1

00000080 <.do_clear_bss_start>:
      80:	a4 3d       	cpi	r26, 0xD4	; 212
      82:	b1 07       	cpc	r27, r17
      84:	e1 f7       	brne	.-8      	; 0x7e <.do_clear_bss_loop>
      86:	0e 94 8d 05 	call	0xb1a	; 0xb1a <main>
      8a:	0c 94 db 0d 	jmp	0x1bb6	; 0x1bb6 <_exit>

0000008e <__bad_interrupt>:
      8e:	0c 94 00 00 	jmp	0	; 0x0 <__vectors>

00000092 <Car_SM_Init>:
#include "car_sm.h"
extern uint16_t Distance;
ERROR_STATUS Car_SM_Init(void)
{

Steering_Init();
      92:	0e 94 ee 08 	call	0x11dc	; 0x11dc <Steering_Init>
Us_Init();
      96:	0e 94 f9 0b 	call	0x17f2	; 0x17f2 <Us_Init>

}
      9a:	08 95       	ret

0000009c <Car_SM_Update>:


ERROR_STATUS Car_SM_Update(void)
{
Us_Trigger();
      9c:	0e 94 02 0c 	call	0x1804	; 0x1804 <Us_Trigger>
Us_GetDistance(&Distance);
      a0:	83 ea       	ldi	r24, 0xA3	; 163
      a2:	90 e0       	ldi	r25, 0x00	; 0
      a4:	0e 94 19 0c 	call	0x1832	; 0x1832 <Us_GetDistance>
// }else if(Distance > 40) 
// {
// 	Steering_SteerCar(CAR_FORWARD,20);
// }	

if(Distance <= 30)
      a8:	80 91 a3 00 	lds	r24, 0x00A3
      ac:	90 91 a4 00 	lds	r25, 0x00A4
      b0:	8f 31       	cpi	r24, 0x1F	; 31
      b2:	91 05       	cpc	r25, r1
      b4:	28 f4       	brcc	.+10     	; 0xc0 <Car_SM_Update+0x24>
{
	
	Steering_SteerCar(CAR_RIGHT,30);
      b6:	83 e0       	ldi	r24, 0x03	; 3
      b8:	6e e1       	ldi	r22, 0x1E	; 30
      ba:	0e 94 f2 08 	call	0x11e4	; 0x11e4 <Steering_SteerCar>
      be:	08 95       	ret
}else
{
	Steering_SteerCar(CAR_FORWARD,30);
      c0:	81 e0       	ldi	r24, 0x01	; 1
      c2:	6e e1       	ldi	r22, 0x1E	; 30
      c4:	0e 94 f2 08 	call	0x11e4	; 0x11e4 <Steering_SteerCar>
}
}	
      c8:	08 95       	ret

000000ca <DIO_init>:
*Description: This function can set the direction of a full port, a nibble
* 			  or even one pin.
*/

ERROR_STATUS DIO_init (DIO_Cfg_s *DIO_info)
{	uint8_t RET=0;
      ca:	fc 01       	movw	r30, r24
		switch(DIO_info->dir)
      cc:	82 81       	ldd	r24, Z+2	; 0x02
      ce:	88 23       	and	r24, r24
      d0:	21 f0       	breq	.+8      	; 0xda <DIO_init+0x10>
      d2:	8f 3f       	cpi	r24, 0xFF	; 255
      d4:	09 f0       	breq	.+2      	; 0xd8 <DIO_init+0xe>
      d6:	4a c0       	rjmp	.+148    	; 0x16c <DIO_init+0xa2>
      d8:	27 c0       	rjmp	.+78     	; 0x128 <DIO_init+0x5e>
			{	
		case INPUT:
		     	switch(DIO_info ->GPIO)
      da:	80 81       	ld	r24, Z
      dc:	81 30       	cpi	r24, 0x01	; 1
      de:	79 f0       	breq	.+30     	; 0xfe <DIO_init+0x34>
      e0:	81 30       	cpi	r24, 0x01	; 1
      e2:	30 f0       	brcs	.+12     	; 0xf0 <DIO_init+0x26>
      e4:	82 30       	cpi	r24, 0x02	; 2
      e6:	91 f0       	breq	.+36     	; 0x10c <DIO_init+0x42>
      e8:	83 30       	cpi	r24, 0x03	; 3
      ea:	09 f0       	breq	.+2      	; 0xee <DIO_init+0x24>
      ec:	41 c0       	rjmp	.+130    	; 0x170 <DIO_init+0xa6>
      ee:	15 c0       	rjmp	.+42     	; 0x11a <DIO_init+0x50>
		 		{
					case GPIOA:
						PORTA_DIR &=(~(DIO_info->pins))	;
      f0:	9a b3       	in	r25, 0x1a	; 26
      f2:	81 81       	ldd	r24, Z+1	; 0x01
      f4:	80 95       	com	r24
      f6:	89 23       	and	r24, r25
      f8:	8a bb       	out	0x1a, r24	; 26
					case GPIOD:
					PORTD_DIR &=(~(DIO_info->pins))	;
					break;
					RET=E_OK;
				}
				RET=E_OK;
      fa:	80 e0       	ldi	r24, 0x00	; 0
		case INPUT:
		     	switch(DIO_info ->GPIO)
		 		{
					case GPIOA:
						PORTA_DIR &=(~(DIO_info->pins))	;
					break;
      fc:	08 95       	ret
					case GPIOB:
					PORTB_DIR &=(~(DIO_info->pins))	;
      fe:	97 b3       	in	r25, 0x17	; 23
     100:	81 81       	ldd	r24, Z+1	; 0x01
     102:	80 95       	com	r24
     104:	89 23       	and	r24, r25
     106:	87 bb       	out	0x17, r24	; 23
					case GPIOD:
					PORTD_DIR &=(~(DIO_info->pins))	;
					break;
					RET=E_OK;
				}
				RET=E_OK;
     108:	80 e0       	ldi	r24, 0x00	; 0
					case GPIOA:
						PORTA_DIR &=(~(DIO_info->pins))	;
					break;
					case GPIOB:
					PORTB_DIR &=(~(DIO_info->pins))	;
					break;
     10a:	08 95       	ret
					case GPIOC:
					PORTC_DIR &=(~(DIO_info->pins))	;
     10c:	94 b3       	in	r25, 0x14	; 20
     10e:	81 81       	ldd	r24, Z+1	; 0x01
     110:	80 95       	com	r24
     112:	89 23       	and	r24, r25
     114:	84 bb       	out	0x14, r24	; 20
					case GPIOD:
					PORTD_DIR &=(~(DIO_info->pins))	;
					break;
					RET=E_OK;
				}
				RET=E_OK;
     116:	80 e0       	ldi	r24, 0x00	; 0
					case GPIOB:
					PORTB_DIR &=(~(DIO_info->pins))	;
					break;
					case GPIOC:
					PORTC_DIR &=(~(DIO_info->pins))	;
					break;
     118:	08 95       	ret
					case GPIOD:
					PORTD_DIR &=(~(DIO_info->pins))	;
     11a:	91 b3       	in	r25, 0x11	; 17
     11c:	81 81       	ldd	r24, Z+1	; 0x01
     11e:	80 95       	com	r24
     120:	89 23       	and	r24, r25
     122:	81 bb       	out	0x11, r24	; 17
					break;
					RET=E_OK;
				}
				RET=E_OK;
     124:	80 e0       	ldi	r24, 0x00	; 0
					case GPIOC:
					PORTC_DIR &=(~(DIO_info->pins))	;
					break;
					case GPIOD:
					PORTD_DIR &=(~(DIO_info->pins))	;
					break;
     126:	08 95       	ret
				}
				RET=E_OK;
				break;

		case OUTPUT:
			  switch(DIO_info ->GPIO)
     128:	80 81       	ld	r24, Z
     12a:	81 30       	cpi	r24, 0x01	; 1
     12c:	69 f0       	breq	.+26     	; 0x148 <DIO_init+0x7e>
     12e:	81 30       	cpi	r24, 0x01	; 1
     130:	28 f0       	brcs	.+10     	; 0x13c <DIO_init+0x72>
     132:	82 30       	cpi	r24, 0x02	; 2
     134:	79 f0       	breq	.+30     	; 0x154 <DIO_init+0x8a>
     136:	83 30       	cpi	r24, 0x03	; 3
     138:	e9 f4       	brne	.+58     	; 0x174 <DIO_init+0xaa>
     13a:	12 c0       	rjmp	.+36     	; 0x160 <DIO_init+0x96>
			  {
				  case GPIOA:
				  PORTA_DIR |=(DIO_info->pins)	;
     13c:	9a b3       	in	r25, 0x1a	; 26
     13e:	81 81       	ldd	r24, Z+1	; 0x01
     140:	89 2b       	or	r24, r25
     142:	8a bb       	out	0x1a, r24	; 26
				  case GPIOD:
				  PORTD_DIR |=(DIO_info->pins)	;
				  break;
				  RET=E_OK;
			  }
			  RET=E_OK;
     144:	80 e0       	ldi	r24, 0x00	; 0
		case OUTPUT:
			  switch(DIO_info ->GPIO)
			  {
				  case GPIOA:
				  PORTA_DIR |=(DIO_info->pins)	;
				  break;
     146:	08 95       	ret
				  case GPIOB:
				  PORTB_DIR |=(DIO_info->pins)	;
     148:	97 b3       	in	r25, 0x17	; 23
     14a:	81 81       	ldd	r24, Z+1	; 0x01
     14c:	89 2b       	or	r24, r25
     14e:	87 bb       	out	0x17, r24	; 23
				  case GPIOD:
				  PORTD_DIR |=(DIO_info->pins)	;
				  break;
				  RET=E_OK;
			  }
			  RET=E_OK;
     150:	80 e0       	ldi	r24, 0x00	; 0
				  case GPIOA:
				  PORTA_DIR |=(DIO_info->pins)	;
				  break;
				  case GPIOB:
				  PORTB_DIR |=(DIO_info->pins)	;
				  break;
     152:	08 95       	ret
				  case GPIOC:
				  PORTC_DIR |=(DIO_info->pins)	;
     154:	94 b3       	in	r25, 0x14	; 20
     156:	81 81       	ldd	r24, Z+1	; 0x01
     158:	89 2b       	or	r24, r25
     15a:	84 bb       	out	0x14, r24	; 20
				  case GPIOD:
				  PORTD_DIR |=(DIO_info->pins)	;
				  break;
				  RET=E_OK;
			  }
			  RET=E_OK;
     15c:	80 e0       	ldi	r24, 0x00	; 0
				  case GPIOB:
				  PORTB_DIR |=(DIO_info->pins)	;
				  break;
				  case GPIOC:
				  PORTC_DIR |=(DIO_info->pins)	;
				  break;
     15e:	08 95       	ret
				  case GPIOD:
				  PORTD_DIR |=(DIO_info->pins)	;
     160:	91 b3       	in	r25, 0x11	; 17
     162:	81 81       	ldd	r24, Z+1	; 0x01
     164:	89 2b       	or	r24, r25
     166:	81 bb       	out	0x11, r24	; 17
				  break;
				  RET=E_OK;
			  }
			  RET=E_OK;
     168:	80 e0       	ldi	r24, 0x00	; 0
				  case GPIOC:
				  PORTC_DIR |=(DIO_info->pins)	;
				  break;
				  case GPIOD:
				  PORTD_DIR |=(DIO_info->pins)	;
				  break;
     16a:	08 95       	ret
			  }
			  RET=E_OK;
			  break;

			default:
			RET=E_NOK;
     16c:	81 e0       	ldi	r24, 0x01	; 1
     16e:	08 95       	ret
					case GPIOD:
					PORTD_DIR &=(~(DIO_info->pins))	;
					break;
					RET=E_OK;
				}
				RET=E_OK;
     170:	80 e0       	ldi	r24, 0x00	; 0
     172:	08 95       	ret
				  case GPIOD:
				  PORTD_DIR |=(DIO_info->pins)	;
				  break;
				  RET=E_OK;
			  }
			  RET=E_OK;
     174:	80 e0       	ldi	r24, 0x00	; 0

			default:
			RET=E_NOK;
	}
return RET;
}
     176:	08 95       	ret

00000178 <DIO_Write>:

ERROR_STATUS DIO_Write (uint8_t GPIO, uint8_t pins, uint8_t value)
{uint8_t Ret=0;
switch(value){
     178:	44 23       	and	r20, r20
     17a:	21 f0       	breq	.+8      	; 0x184 <DIO_Write+0xc>
     17c:	4f 3f       	cpi	r20, 0xFF	; 255
     17e:	09 f0       	breq	.+2      	; 0x182 <DIO_Write+0xa>
     180:	3f c0       	rjmp	.+126    	; 0x200 <DIO_Write+0x88>
     182:	21 c0       	rjmp	.+66     	; 0x1c6 <DIO_Write+0x4e>
case LOW:
{
switch (GPIO)
     184:	81 30       	cpi	r24, 0x01	; 1
     186:	69 f0       	breq	.+26     	; 0x1a2 <DIO_Write+0x2a>
     188:	81 30       	cpi	r24, 0x01	; 1
     18a:	28 f0       	brcs	.+10     	; 0x196 <DIO_Write+0x1e>
     18c:	82 30       	cpi	r24, 0x02	; 2
     18e:	79 f0       	breq	.+30     	; 0x1ae <DIO_Write+0x36>
     190:	83 30       	cpi	r24, 0x03	; 3
     192:	c1 f5       	brne	.+112    	; 0x204 <DIO_Write+0x8c>
     194:	12 c0       	rjmp	.+36     	; 0x1ba <DIO_Write+0x42>
{	case GPIOA:
	PORTA_DATA &= ~(pins);   // 0b01111111
     196:	8b b3       	in	r24, 0x1b	; 27
     198:	60 95       	com	r22
     19a:	68 23       	and	r22, r24
     19c:	6b bb       	out	0x1b, r22	; 27
	break;
	default:
	Ret=E_NOK;
	break;
	}
Ret=E_OK;
     19e:	80 e0       	ldi	r24, 0x00	; 0
{
switch (GPIO)
{	case GPIOA:
	PORTA_DATA &= ~(pins);   // 0b01111111
Ret=E_OK;
	break;
     1a0:	08 95       	ret
	case GPIOB:
	PORTB_DATA &= ~(pins);
     1a2:	88 b3       	in	r24, 0x18	; 24
     1a4:	60 95       	com	r22
     1a6:	68 23       	and	r22, r24
     1a8:	68 bb       	out	0x18, r22	; 24
	break;
	default:
	Ret=E_NOK;
	break;
	}
Ret=E_OK;
     1aa:	80 e0       	ldi	r24, 0x00	; 0
Ret=E_OK;
	break;
	case GPIOB:
	PORTB_DATA &= ~(pins);
Ret=E_OK;
	break;
     1ac:	08 95       	ret
	case GPIOC:
	PORTC_DATA &= ~(pins);
     1ae:	85 b3       	in	r24, 0x15	; 21
     1b0:	60 95       	com	r22
     1b2:	68 23       	and	r22, r24
     1b4:	65 bb       	out	0x15, r22	; 21
	break;
	default:
	Ret=E_NOK;
	break;
	}
Ret=E_OK;
     1b6:	80 e0       	ldi	r24, 0x00	; 0
Ret=E_OK;
	break;
	case GPIOC:
	PORTC_DATA &= ~(pins);
Ret=E_OK;
	break;
     1b8:	08 95       	ret
	case GPIOD:
	PORTD_DATA &= ~(pins);
     1ba:	82 b3       	in	r24, 0x12	; 18
     1bc:	60 95       	com	r22
     1be:	68 23       	and	r22, r24
     1c0:	62 bb       	out	0x12, r22	; 18
	break;
	default:
	Ret=E_NOK;
	break;
	}
Ret=E_OK;
     1c2:	80 e0       	ldi	r24, 0x00	; 0
Ret=E_OK;
	break;
	case GPIOD:
	PORTD_DATA &= ~(pins);
	Ret=E_OK;
	break;
     1c4:	08 95       	ret
	}
Ret=E_OK;
break;
}
case HIGH:{
switch (GPIO)
     1c6:	81 30       	cpi	r24, 0x01	; 1
     1c8:	61 f0       	breq	.+24     	; 0x1e2 <DIO_Write+0x6a>
     1ca:	81 30       	cpi	r24, 0x01	; 1
     1cc:	28 f0       	brcs	.+10     	; 0x1d8 <DIO_Write+0x60>
     1ce:	82 30       	cpi	r24, 0x02	; 2
     1d0:	69 f0       	breq	.+26     	; 0x1ec <DIO_Write+0x74>
     1d2:	83 30       	cpi	r24, 0x03	; 3
     1d4:	c9 f4       	brne	.+50     	; 0x208 <DIO_Write+0x90>
     1d6:	0f c0       	rjmp	.+30     	; 0x1f6 <DIO_Write+0x7e>
{	case GPIOA:
	PORTA_DATA |=(pins);
     1d8:	8b b3       	in	r24, 0x1b	; 27
     1da:	68 2b       	or	r22, r24
     1dc:	6b bb       	out	0x1b, r22	; 27
	break;
	default:
	Ret=E_NOK;
	break;
}
Ret=E_OK;
     1de:	80 e0       	ldi	r24, 0x00	; 0
case HIGH:{
switch (GPIO)
{	case GPIOA:
	PORTA_DATA |=(pins);
Ret=E_OK;
	break;
     1e0:	08 95       	ret
	case GPIOB:
	PORTB_DATA |=(pins);
     1e2:	88 b3       	in	r24, 0x18	; 24
     1e4:	68 2b       	or	r22, r24
     1e6:	68 bb       	out	0x18, r22	; 24
	break;
	default:
	Ret=E_NOK;
	break;
}
Ret=E_OK;
     1e8:	80 e0       	ldi	r24, 0x00	; 0
Ret=E_OK;
	break;
	case GPIOB:
	PORTB_DATA |=(pins);
Ret=E_OK;
	break;
     1ea:	08 95       	ret
	case GPIOC:
	PORTC_DATA |=(pins);
     1ec:	85 b3       	in	r24, 0x15	; 21
     1ee:	68 2b       	or	r22, r24
     1f0:	65 bb       	out	0x15, r22	; 21
	break;
	default:
	Ret=E_NOK;
	break;
}
Ret=E_OK;
     1f2:	80 e0       	ldi	r24, 0x00	; 0
Ret=E_OK;
	break;
	case GPIOC:
	PORTC_DATA |=(pins);
Ret=E_OK;
	break;
     1f4:	08 95       	ret
	case GPIOD:
	PORTD_DATA |=(pins);
     1f6:	82 b3       	in	r24, 0x12	; 18
     1f8:	68 2b       	or	r22, r24
     1fa:	62 bb       	out	0x12, r22	; 18
	break;
	default:
	Ret=E_NOK;
	break;
}
Ret=E_OK;
     1fc:	80 e0       	ldi	r24, 0x00	; 0
Ret=E_OK;
	break;
	case GPIOD:
	PORTD_DATA |=(pins);
Ret=E_OK;
	break;
     1fe:	08 95       	ret
}
Ret=E_OK;
break;
}
default:
Ret=E_NOK;
     200:	81 e0       	ldi	r24, 0x01	; 1
     202:	08 95       	ret
	break;
	default:
	Ret=E_NOK;
	break;
	}
Ret=E_OK;
     204:	80 e0       	ldi	r24, 0x00	; 0
     206:	08 95       	ret
	break;
	default:
	Ret=E_NOK;
	break;
}
Ret=E_OK;
     208:	80 e0       	ldi	r24, 0x00	; 0
default:
Ret=E_NOK;
break;
}
return Ret;
}
     20a:	08 95       	ret

0000020c <DIO_Read>:


ERROR_STATUS DIO_Read (uint8_t GPIO,uint8_t pins, uint8_t *data)
{
     20c:	fa 01       	movw	r30, r20

switch (GPIO)
     20e:	81 30       	cpi	r24, 0x01	; 1
     210:	59 f0       	breq	.+22     	; 0x228 <DIO_Read+0x1c>
     212:	81 30       	cpi	r24, 0x01	; 1
     214:	28 f0       	brcs	.+10     	; 0x220 <DIO_Read+0x14>
     216:	82 30       	cpi	r24, 0x02	; 2
     218:	59 f0       	breq	.+22     	; 0x230 <DIO_Read+0x24>
     21a:	83 30       	cpi	r24, 0x03	; 3
     21c:	81 f4       	brne	.+32     	; 0x23e <DIO_Read+0x32>
     21e:	0c c0       	rjmp	.+24     	; 0x238 <DIO_Read+0x2c>
{	case GPIOA:
	*data=(PORTA_PIN & pins);
     220:	89 b3       	in	r24, 0x19	; 25
     222:	68 23       	and	r22, r24
     224:	60 83       	st	Z, r22
	break;
     226:	0b c0       	rjmp	.+22     	; 0x23e <DIO_Read+0x32>
	case GPIOB:
	*data=(PORTB_PIN & pins);
     228:	86 b3       	in	r24, 0x16	; 22
     22a:	68 23       	and	r22, r24
     22c:	60 83       	st	Z, r22
	break;
     22e:	07 c0       	rjmp	.+14     	; 0x23e <DIO_Read+0x32>
	case GPIOC:
	*data=(PORTC_PIN & pins);
     230:	83 b3       	in	r24, 0x13	; 19
     232:	68 23       	and	r22, r24
     234:	60 83       	st	Z, r22
	break;
     236:	03 c0       	rjmp	.+6      	; 0x23e <DIO_Read+0x32>
	case GPIOD:
	*data=(PORTD_PIN & pins);
     238:	80 b3       	in	r24, 0x10	; 16
     23a:	68 23       	and	r22, r24
     23c:	60 83       	st	Z, r22
	break;
}
if(*data > 0)
     23e:	80 81       	ld	r24, Z
     240:	88 23       	and	r24, r24
     242:	11 f0       	breq	.+4      	; 0x248 <DIO_Read+0x3c>
{
	*data = 1;
     244:	81 e0       	ldi	r24, 0x01	; 1
     246:	80 83       	st	Z, r24
}


}
     248:	08 95       	ret

0000024a <DIO_Toggle>:
ERROR_STATUS DIO_Toggle (uint8_t GPIO, uint8_t pins)
{
uint8_t ret=0;
	switch (GPIO)
     24a:	81 30       	cpi	r24, 0x01	; 1
     24c:	61 f0       	breq	.+24     	; 0x266 <DIO_Toggle+0x1c>
     24e:	81 30       	cpi	r24, 0x01	; 1
     250:	28 f0       	brcs	.+10     	; 0x25c <DIO_Toggle+0x12>
     252:	82 30       	cpi	r24, 0x02	; 2
     254:	69 f0       	breq	.+26     	; 0x270 <DIO_Toggle+0x26>
     256:	83 30       	cpi	r24, 0x03	; 3
     258:	a9 f4       	brne	.+42     	; 0x284 <DIO_Toggle+0x3a>
     25a:	0f c0       	rjmp	.+30     	; 0x27a <DIO_Toggle+0x30>
	{	case GPIOA:
		PORTA_DATA ^=(pins);
     25c:	8b b3       	in	r24, 0x1b	; 27
     25e:	68 27       	eor	r22, r24
     260:	6b bb       	out	0x1b, r22	; 27
		ret=E_OK;
     262:	80 e0       	ldi	r24, 0x00	; 0
		break;
     264:	08 95       	ret
		case GPIOB:
		PORTB_DATA ^=(pins);
     266:	88 b3       	in	r24, 0x18	; 24
     268:	68 27       	eor	r22, r24
     26a:	68 bb       	out	0x18, r22	; 24
ret=E_OK;
     26c:	80 e0       	ldi	r24, 0x00	; 0
		break;
     26e:	08 95       	ret
		case GPIOC:
		PORTC_DATA ^=(pins);
     270:	85 b3       	in	r24, 0x15	; 21
     272:	68 27       	eor	r22, r24
     274:	65 bb       	out	0x15, r22	; 21
ret=E_OK;
     276:	80 e0       	ldi	r24, 0x00	; 0
		break;
     278:	08 95       	ret
		case GPIOD:
		PORTD_DATA ^=(pins);
     27a:	82 b3       	in	r24, 0x12	; 18
     27c:	68 27       	eor	r22, r24
     27e:	62 bb       	out	0x12, r22	; 18
ret=E_OK;
     280:	80 e0       	ldi	r24, 0x00	; 0
		break;
     282:	08 95       	ret
		default:
		ret=E_NOK;
     284:	81 e0       	ldi	r24, 0x01	; 1
		break;
	}

return ret;
}
     286:	08 95       	ret

00000288 <Icu_Init>:
static volatile uint32_t u32_Time_rising_edge=0;
static volatile uint32_t u32_Time_faling_edge=0;
static volatile uint32_t Timer_High=0;
static volatile uint32_t Timer_Low=0;
ERROR_STATUS Icu_Init(Icu_cfg_s * Icu_Cfg)
{
     288:	cf 93       	push	r28
     28a:	df 93       	push	r29
     28c:	ec 01       	movw	r28, r24
	uint8_t Ret=0;
//Enable Global int
G_interrupt_Enable();
     28e:	0e 94 58 02 	call	0x4b0	; 0x4b0 <G_interrupt_Enable>
//Enable EXTI
switch(Icu_Cfg->ICU_Ch_No)
     292:	88 81       	ld	r24, Y
     294:	81 30       	cpi	r24, 0x01	; 1
     296:	41 f0       	breq	.+16     	; 0x2a8 <Icu_Init+0x20>
     298:	81 30       	cpi	r24, 0x01	; 1
     29a:	18 f0       	brcs	.+6      	; 0x2a2 <Icu_Init+0x1a>
     29c:	82 30       	cpi	r24, 0x02	; 2
     29e:	49 f4       	brne	.+18     	; 0x2b2 <Icu_Init+0x2a>
     2a0:	06 c0       	rjmp	.+12     	; 0x2ae <Icu_Init+0x26>
{
case ICU_CH0:
EX_interrupt_enable0();
     2a2:	0e 94 71 02 	call	0x4e2	; 0x4e2 <EX_interrupt_enable0>
break;
     2a6:	05 c0       	rjmp	.+10     	; 0x2b2 <Icu_Init+0x2a>
case ICU_CH1:
EX_interrupt_enable1();
     2a8:	0e 94 65 02 	call	0x4ca	; 0x4ca <EX_interrupt_enable1>
break;
     2ac:	02 c0       	rjmp	.+4      	; 0x2b2 <Icu_Init+0x2a>
case ICU_CH2:
EX_interrupt_enable2();
     2ae:	0e 94 5c 02 	call	0x4b8	; 0x4b8 <EX_interrupt_enable2>
break;
}

switch(Icu_Cfg->ICU_Ch_Timer)
     2b2:	89 81       	ldd	r24, Y+1	; 0x01
     2b4:	81 30       	cpi	r24, 0x01	; 1
     2b6:	51 f0       	breq	.+20     	; 0x2cc <Icu_Init+0x44>
     2b8:	81 30       	cpi	r24, 0x01	; 1
     2ba:	18 f0       	brcs	.+6      	; 0x2c2 <Icu_Init+0x3a>
     2bc:	82 30       	cpi	r24, 0x02	; 2
     2be:	89 f4       	brne	.+34     	; 0x2e2 <Icu_Init+0x5a>
     2c0:	0c c0       	rjmp	.+24     	; 0x2da <Icu_Init+0x52>
{
	case ICU_TIMER_CH0:
		//Enable Timer0
		TCCR0=0x05;
     2c2:	85 e0       	ldi	r24, 0x05	; 5
     2c4:	83 bf       	out	0x33, r24	; 51
		TIMSK=0x01;
     2c6:	81 e0       	ldi	r24, 0x01	; 1
     2c8:	89 bf       	out	0x39, r24	; 57
		break;
     2ca:	0b c0       	rjmp	.+22     	; 0x2e2 <Icu_Init+0x5a>
	case ICU_TIMER_CH1:
		TCCR1=0x0005;
     2cc:	85 e0       	ldi	r24, 0x05	; 5
     2ce:	90 e0       	ldi	r25, 0x00	; 0
     2d0:	9f bd       	out	0x2f, r25	; 47
     2d2:	8e bd       	out	0x2e, r24	; 46
		TIMSK=0x04;
     2d4:	84 e0       	ldi	r24, 0x04	; 4
     2d6:	89 bf       	out	0x39, r24	; 57
		break;
     2d8:	04 c0       	rjmp	.+8      	; 0x2e2 <Icu_Init+0x5a>
	case ICU_TIMER_CH2:
		TCCR2=0x07;
     2da:	87 e0       	ldi	r24, 0x07	; 7
     2dc:	85 bd       	out	0x25, r24	; 37
		TIMSK=0x04;
     2de:	84 e0       	ldi	r24, 0x04	; 4
     2e0:	89 bf       	out	0x39, r24	; 57
		break;
}

return Ret;
}
     2e2:	80 e0       	ldi	r24, 0x00	; 0
     2e4:	df 91       	pop	r29
     2e6:	cf 91       	pop	r28
     2e8:	08 95       	ret

000002ea <Icu_ReadTime>:
 * 				  - E_OK : successful									   *
 *				  - E_NOK : not successful								   *
 * Description	: calculates the time between 2 edges				       *
 ***************************************************************************/
ERROR_STATUS Icu_ReadTime(uint8_t Icu_Channel, uint8_t Icu_EdgeToEdge, uint32_t * Icu_Time)
{
     2ea:	0f 93       	push	r16
     2ec:	1f 93       	push	r17
uint8_t Ret=0;
switch(Icu_Channel)
     2ee:	81 30       	cpi	r24, 0x01	; 1
     2f0:	49 f0       	breq	.+18     	; 0x304 <Icu_ReadTime+0x1a>
     2f2:	81 30       	cpi	r24, 0x01	; 1
     2f4:	18 f0       	brcs	.+6      	; 0x2fc <Icu_ReadTime+0x12>
     2f6:	82 30       	cpi	r24, 0x02	; 2
     2f8:	71 f4       	brne	.+28     	; 0x316 <Icu_ReadTime+0x2c>
     2fa:	0a c0       	rjmp	.+20     	; 0x310 <Icu_ReadTime+0x26>
{
	case ICU_TIMER_CH0:
	TCCR0|=0x03;
     2fc:	83 b7       	in	r24, 0x33	; 51
     2fe:	83 60       	ori	r24, 0x03	; 3
     300:	83 bf       	out	0x33, r24	; 51
	Ret=E_OK;
	break;
     302:	09 c0       	rjmp	.+18     	; 0x316 <Icu_ReadTime+0x2c>
	case ICU_TIMER_CH1:
	TCCR1|=0x0005;
     304:	8e b5       	in	r24, 0x2e	; 46
     306:	9f b5       	in	r25, 0x2f	; 47
     308:	85 60       	ori	r24, 0x05	; 5
     30a:	9f bd       	out	0x2f, r25	; 47
     30c:	8e bd       	out	0x2e, r24	; 46
	Ret=E_OK;	
	break;
     30e:	03 c0       	rjmp	.+6      	; 0x316 <Icu_ReadTime+0x2c>
	case ICU_TIMER_CH2:
	TCCR2|=0x07;
     310:	85 b5       	in	r24, 0x25	; 37
     312:	87 60       	ori	r24, 0x07	; 7
     314:	85 bd       	out	0x25, r24	; 37
	default:
	Ret=E_NOK;
	break;
}  

switch(Icu_EdgeToEdge)
     316:	61 30       	cpi	r22, 0x01	; 1
     318:	01 f1       	breq	.+64     	; 0x35a <Icu_ReadTime+0x70>
     31a:	61 30       	cpi	r22, 0x01	; 1
     31c:	18 f0       	brcs	.+6      	; 0x324 <Icu_ReadTime+0x3a>
     31e:	62 30       	cpi	r22, 0x02	; 2
     320:	d1 f5       	brne	.+116    	; 0x396 <Icu_ReadTime+0xac>
     322:	2a c0       	rjmp	.+84     	; 0x378 <Icu_ReadTime+0x8e>
{
	case ICU_RISE_TO_RISE:
	*Icu_Time=Timer_High+Timer_Low;
     324:	80 91 92 00 	lds	r24, 0x0092
     328:	90 91 93 00 	lds	r25, 0x0093
     32c:	a0 91 94 00 	lds	r26, 0x0094
     330:	b0 91 95 00 	lds	r27, 0x0095
     334:	00 91 8e 00 	lds	r16, 0x008E
     338:	10 91 8f 00 	lds	r17, 0x008F
     33c:	20 91 90 00 	lds	r18, 0x0090
     340:	30 91 91 00 	lds	r19, 0x0091
     344:	80 0f       	add	r24, r16
     346:	91 1f       	adc	r25, r17
     348:	a2 1f       	adc	r26, r18
     34a:	b3 1f       	adc	r27, r19
     34c:	fa 01       	movw	r30, r20
     34e:	80 83       	st	Z, r24
     350:	91 83       	std	Z+1, r25	; 0x01
     352:	a2 83       	std	Z+2, r26	; 0x02
     354:	b3 83       	std	Z+3, r27	; 0x03
	Ret=E_OK;
     356:	80 e0       	ldi	r24, 0x00	; 0
	break;
     358:	1f c0       	rjmp	.+62     	; 0x398 <Icu_ReadTime+0xae>
	case ICU_RISE_TO_FALL:
	*Icu_Time=Timer_High;
     35a:	80 91 92 00 	lds	r24, 0x0092
     35e:	90 91 93 00 	lds	r25, 0x0093
     362:	a0 91 94 00 	lds	r26, 0x0094
     366:	b0 91 95 00 	lds	r27, 0x0095
     36a:	fa 01       	movw	r30, r20
     36c:	80 83       	st	Z, r24
     36e:	91 83       	std	Z+1, r25	; 0x01
     370:	a2 83       	std	Z+2, r26	; 0x02
     372:	b3 83       	std	Z+3, r27	; 0x03
	Ret=E_OK;
     374:	80 e0       	ldi	r24, 0x00	; 0
	break;
     376:	10 c0       	rjmp	.+32     	; 0x398 <Icu_ReadTime+0xae>
	case ICU_FALE_TO_RISE:
	*Icu_Time=Timer_Low;
     378:	80 91 8e 00 	lds	r24, 0x008E
     37c:	90 91 8f 00 	lds	r25, 0x008F
     380:	a0 91 90 00 	lds	r26, 0x0090
     384:	b0 91 91 00 	lds	r27, 0x0091
     388:	fa 01       	movw	r30, r20
     38a:	80 83       	st	Z, r24
     38c:	91 83       	std	Z+1, r25	; 0x01
     38e:	a2 83       	std	Z+2, r26	; 0x02
     390:	b3 83       	std	Z+3, r27	; 0x03
	Ret=E_OK;
     392:	80 e0       	ldi	r24, 0x00	; 0
	break;
     394:	01 c0       	rjmp	.+2      	; 0x398 <Icu_ReadTime+0xae>
	
	default:
	Ret=E_NOK;
     396:	81 e0       	ldi	r24, 0x01	; 1
	break;
}

return Ret;
}
     398:	1f 91       	pop	r17
     39a:	0f 91       	pop	r16
     39c:	08 95       	ret

0000039e <EXTI>:
void EXTI(void)
{	u32_sgv_TimerVal=(uint32_t)TCNT0+((uint32_t)u8_ovf_happend*255);
     39e:	cf 93       	push	r28
     3a0:	c2 b7       	in	r28, 0x32	; 50
     3a2:	60 91 9e 00 	lds	r22, 0x009E
     3a6:	70 e0       	ldi	r23, 0x00	; 0
     3a8:	80 e0       	ldi	r24, 0x00	; 0
     3aa:	90 e0       	ldi	r25, 0x00	; 0
     3ac:	2f ef       	ldi	r18, 0xFF	; 255
     3ae:	30 e0       	ldi	r19, 0x00	; 0
     3b0:	40 e0       	ldi	r20, 0x00	; 0
     3b2:	50 e0       	ldi	r21, 0x00	; 0
     3b4:	0e 94 bc 0d 	call	0x1b78	; 0x1b78 <__mulsi3>
     3b8:	dc 01       	movw	r26, r24
     3ba:	cb 01       	movw	r24, r22
     3bc:	8c 0f       	add	r24, r28
     3be:	91 1d       	adc	r25, r1
     3c0:	a1 1d       	adc	r26, r1
     3c2:	b1 1d       	adc	r27, r1
     3c4:	80 93 9f 00 	sts	0x009F, r24
     3c8:	90 93 a0 00 	sts	0x00A0, r25
     3cc:	a0 93 a1 00 	sts	0x00A1, r26
     3d0:	b0 93 a2 00 	sts	0x00A2, r27
	u8_ovf_happend=0;
     3d4:	10 92 9e 00 	sts	0x009E, r1
		if(READBIT(MCUCSR,6))
     3d8:	84 b7       	in	r24, 0x34	; 52
     3da:	82 95       	swap	r24
     3dc:	86 95       	lsr	r24
     3de:	86 95       	lsr	r24
     3e0:	83 70       	andi	r24, 0x03	; 3
     3e2:	80 ff       	sbrs	r24, 0
     3e4:	30 c0       	rjmp	.+96     	; 0x446 <EXTI+0xa8>
		{
		u32_Time_rising_edge=u32_sgv_TimerVal;
     3e6:	80 91 9f 00 	lds	r24, 0x009F
     3ea:	90 91 a0 00 	lds	r25, 0x00A0
     3ee:	a0 91 a1 00 	lds	r26, 0x00A1
     3f2:	b0 91 a2 00 	lds	r27, 0x00A2
     3f6:	80 93 9a 00 	sts	0x009A, r24
     3fa:	90 93 9b 00 	sts	0x009B, r25
     3fe:	a0 93 9c 00 	sts	0x009C, r26
     402:	b0 93 9d 00 	sts	0x009D, r27
		Timer_Low = u32_Time_rising_edge - u32_Time_faling_edge;
     406:	80 91 9a 00 	lds	r24, 0x009A
     40a:	90 91 9b 00 	lds	r25, 0x009B
     40e:	a0 91 9c 00 	lds	r26, 0x009C
     412:	b0 91 9d 00 	lds	r27, 0x009D
     416:	40 91 96 00 	lds	r20, 0x0096
     41a:	50 91 97 00 	lds	r21, 0x0097
     41e:	60 91 98 00 	lds	r22, 0x0098
     422:	70 91 99 00 	lds	r23, 0x0099
     426:	84 1b       	sub	r24, r20
     428:	95 0b       	sbc	r25, r21
     42a:	a6 0b       	sbc	r26, r22
     42c:	b7 0b       	sbc	r27, r23
     42e:	80 93 8e 00 	sts	0x008E, r24
     432:	90 93 8f 00 	sts	0x008F, r25
     436:	a0 93 90 00 	sts	0x0090, r26
     43a:	b0 93 91 00 	sts	0x0091, r27
		/*****************************************/	
		CLEAR_BIT(MCUCSR,6);   /*Make it falling*/
     43e:	84 b7       	in	r24, 0x34	; 52
     440:	8f 7b       	andi	r24, 0xBF	; 191
     442:	84 bf       	out	0x34, r24	; 52
     444:	2f c0       	rjmp	.+94     	; 0x4a4 <EXTI+0x106>
		/***************************************/
		}else{
			u32_Time_faling_edge=u32_sgv_TimerVal;
     446:	80 91 9f 00 	lds	r24, 0x009F
     44a:	90 91 a0 00 	lds	r25, 0x00A0
     44e:	a0 91 a1 00 	lds	r26, 0x00A1
     452:	b0 91 a2 00 	lds	r27, 0x00A2
     456:	80 93 96 00 	sts	0x0096, r24
     45a:	90 93 97 00 	sts	0x0097, r25
     45e:	a0 93 98 00 	sts	0x0098, r26
     462:	b0 93 99 00 	sts	0x0099, r27
			Timer_High =u32_Time_faling_edge - u32_Time_rising_edge;
     466:	80 91 96 00 	lds	r24, 0x0096
     46a:	90 91 97 00 	lds	r25, 0x0097
     46e:	a0 91 98 00 	lds	r26, 0x0098
     472:	b0 91 99 00 	lds	r27, 0x0099
     476:	40 91 9a 00 	lds	r20, 0x009A
     47a:	50 91 9b 00 	lds	r21, 0x009B
     47e:	60 91 9c 00 	lds	r22, 0x009C
     482:	70 91 9d 00 	lds	r23, 0x009D
     486:	84 1b       	sub	r24, r20
     488:	95 0b       	sbc	r25, r21
     48a:	a6 0b       	sbc	r26, r22
     48c:	b7 0b       	sbc	r27, r23
     48e:	80 93 92 00 	sts	0x0092, r24
     492:	90 93 93 00 	sts	0x0093, r25
     496:	a0 93 94 00 	sts	0x0094, r26
     49a:	b0 93 95 00 	sts	0x0095, r27
			/*********************************/	
			SET_BIT(MCUCSR,6);		/*Make it Rising*/
     49e:	84 b7       	in	r24, 0x34	; 52
     4a0:	80 64       	ori	r24, 0x40	; 64
     4a2:	84 bf       	out	0x34, r24	; 52
			/********************************/
			}	

//UDR=Timer_High;
}
     4a4:	cf 91       	pop	r28
     4a6:	08 95       	ret

000004a8 <timer_interrupt>:
void timer_interrupt(void)
{
	u8_ovf_happend=1;
     4a8:	81 e0       	ldi	r24, 0x01	; 1
     4aa:	80 93 9e 00 	sts	0x009E, r24
     4ae:	08 95       	ret

000004b0 <G_interrupt_Enable>:
ptr_to_Fun TWI_I2C;
ptr_to_Fun SPM_RDY;

void G_interrupt_Enable(void)
{
 SREG |=(0x80);
     4b0:	8f b7       	in	r24, 0x3f	; 63
     4b2:	80 68       	ori	r24, 0x80	; 128
     4b4:	8f bf       	out	0x3f, r24	; 63
}
     4b6:	08 95       	ret

000004b8 <EX_interrupt_enable2>:
void EX_interrupt_enable2(void)
{
CLEAR_BIT(PORTB_DIR,2);/*Input*/
     4b8:	ba 98       	cbi	0x17, 2	; 23
SET_BIT(PORTB_DATA,2);/*Pullup*/
     4ba:	c2 9a       	sbi	0x18, 2	; 24
SET_BIT(GICR,INT2);/*EXT2*/
     4bc:	8b b7       	in	r24, 0x3b	; 59
     4be:	80 62       	ori	r24, 0x20	; 32
     4c0:	8b bf       	out	0x3b, r24	; 59
SET_BIT(MCUCSR,6);/*Rising*/
     4c2:	84 b7       	in	r24, 0x34	; 52
     4c4:	80 64       	ori	r24, 0x40	; 64
     4c6:	84 bf       	out	0x34, r24	; 52
}
     4c8:	08 95       	ret

000004ca <EX_interrupt_enable1>:
void EX_interrupt_enable1(void)
{
	CLEAR_BIT(PORTD_DIR,3);
     4ca:	8b 98       	cbi	0x11, 3	; 17
	SET_BIT(PORTD_DATA,3);
     4cc:	93 9a       	sbi	0x12, 3	; 18
	SET_BIT(GICR,INT1);
     4ce:	8b b7       	in	r24, 0x3b	; 59
     4d0:	80 68       	ori	r24, 0x80	; 128
     4d2:	8b bf       	out	0x3b, r24	; 59
	SET_BIT(MCUCR,2);/*Any logical change*/
     4d4:	85 b7       	in	r24, 0x35	; 53
     4d6:	84 60       	ori	r24, 0x04	; 4
     4d8:	85 bf       	out	0x35, r24	; 53
	CLEAR_BIT(MCUCR,3);
     4da:	85 b7       	in	r24, 0x35	; 53
     4dc:	87 7f       	andi	r24, 0xF7	; 247
     4de:	85 bf       	out	0x35, r24	; 53
	
}
     4e0:	08 95       	ret

000004e2 <EX_interrupt_enable0>:
void EX_interrupt_enable0(void)
{
	CLEAR_BIT(PORTD_DIR,2);
     4e2:	8a 98       	cbi	0x11, 2	; 17
	SET_BIT(PORTD_DATA,2);
     4e4:	92 9a       	sbi	0x12, 2	; 18
	SET_BIT(GICR,INT0);
     4e6:	8b b7       	in	r24, 0x3b	; 59
     4e8:	80 64       	ori	r24, 0x40	; 64
     4ea:	8b bf       	out	0x3b, r24	; 59
	SET_BIT(MCUCR,0);/*Any logical change*/
     4ec:	85 b7       	in	r24, 0x35	; 53
     4ee:	81 60       	ori	r24, 0x01	; 1
     4f0:	85 bf       	out	0x35, r24	; 53
	CLEAR_BIT(MCUCR,1);
     4f2:	85 b7       	in	r24, 0x35	; 53
     4f4:	8d 7f       	andi	r24, 0xFD	; 253
     4f6:	85 bf       	out	0x35, r24	; 53
	
}
     4f8:	08 95       	ret

000004fa <G_interrupt_Disable>:
void G_interrupt_Disable(void)
{
CLEAR_BIT(SREG,7);
     4fa:	8f b7       	in	r24, 0x3f	; 63
     4fc:	8f 77       	andi	r24, 0x7F	; 127
     4fe:	8f bf       	out	0x3f, r24	; 63
}
     500:	08 95       	ret

00000502 <__vector_1>:
void __vector_1(void) __attribute__((signal));
void __vector_1(void)
{
     502:	1f 92       	push	r1
     504:	0f 92       	push	r0
     506:	0f b6       	in	r0, 0x3f	; 63
     508:	0f 92       	push	r0
     50a:	11 24       	eor	r1, r1
     50c:	2f 93       	push	r18
     50e:	3f 93       	push	r19
     510:	4f 93       	push	r20
     512:	5f 93       	push	r21
     514:	6f 93       	push	r22
     516:	7f 93       	push	r23
     518:	8f 93       	push	r24
     51a:	9f 93       	push	r25
     51c:	af 93       	push	r26
     51e:	bf 93       	push	r27
     520:	ef 93       	push	r30
     522:	ff 93       	push	r31
  INT0_external_interrupt();
     524:	e0 91 c4 00 	lds	r30, 0x00C4
     528:	f0 91 c5 00 	lds	r31, 0x00C5
     52c:	09 95       	icall
}
     52e:	ff 91       	pop	r31
     530:	ef 91       	pop	r30
     532:	bf 91       	pop	r27
     534:	af 91       	pop	r26
     536:	9f 91       	pop	r25
     538:	8f 91       	pop	r24
     53a:	7f 91       	pop	r23
     53c:	6f 91       	pop	r22
     53e:	5f 91       	pop	r21
     540:	4f 91       	pop	r20
     542:	3f 91       	pop	r19
     544:	2f 91       	pop	r18
     546:	0f 90       	pop	r0
     548:	0f be       	out	0x3f, r0	; 63
     54a:	0f 90       	pop	r0
     54c:	1f 90       	pop	r1
     54e:	18 95       	reti

00000550 <__vector_2>:


void __vector_2(void) __attribute__((signal));
void __vector_2(void)
{
     550:	1f 92       	push	r1
     552:	0f 92       	push	r0
     554:	0f b6       	in	r0, 0x3f	; 63
     556:	0f 92       	push	r0
     558:	11 24       	eor	r1, r1
     55a:	2f 93       	push	r18
     55c:	3f 93       	push	r19
     55e:	4f 93       	push	r20
     560:	5f 93       	push	r21
     562:	6f 93       	push	r22
     564:	7f 93       	push	r23
     566:	8f 93       	push	r24
     568:	9f 93       	push	r25
     56a:	af 93       	push	r26
     56c:	bf 93       	push	r27
     56e:	ef 93       	push	r30
     570:	ff 93       	push	r31
  INT1_external_interrupt();
     572:	e0 91 cc 00 	lds	r30, 0x00CC
     576:	f0 91 cd 00 	lds	r31, 0x00CD
     57a:	09 95       	icall
}
     57c:	ff 91       	pop	r31
     57e:	ef 91       	pop	r30
     580:	bf 91       	pop	r27
     582:	af 91       	pop	r26
     584:	9f 91       	pop	r25
     586:	8f 91       	pop	r24
     588:	7f 91       	pop	r23
     58a:	6f 91       	pop	r22
     58c:	5f 91       	pop	r21
     58e:	4f 91       	pop	r20
     590:	3f 91       	pop	r19
     592:	2f 91       	pop	r18
     594:	0f 90       	pop	r0
     596:	0f be       	out	0x3f, r0	; 63
     598:	0f 90       	pop	r0
     59a:	1f 90       	pop	r1
     59c:	18 95       	reti

0000059e <__vector_3>:


void __vector_3(void) __attribute__((signal));
void __vector_3(void)
{
     59e:	1f 92       	push	r1
     5a0:	0f 92       	push	r0
     5a2:	0f b6       	in	r0, 0x3f	; 63
     5a4:	0f 92       	push	r0
     5a6:	11 24       	eor	r1, r1
     5a8:	2f 93       	push	r18
     5aa:	3f 93       	push	r19
     5ac:	4f 93       	push	r20
     5ae:	5f 93       	push	r21
     5b0:	6f 93       	push	r22
     5b2:	7f 93       	push	r23
     5b4:	8f 93       	push	r24
     5b6:	9f 93       	push	r25
     5b8:	af 93       	push	r26
     5ba:	bf 93       	push	r27
     5bc:	ef 93       	push	r30
     5be:	ff 93       	push	r31
  INT2_external_interrupt();
     5c0:	e0 91 70 00 	lds	r30, 0x0070
     5c4:	f0 91 71 00 	lds	r31, 0x0071
     5c8:	09 95       	icall
}
     5ca:	ff 91       	pop	r31
     5cc:	ef 91       	pop	r30
     5ce:	bf 91       	pop	r27
     5d0:	af 91       	pop	r26
     5d2:	9f 91       	pop	r25
     5d4:	8f 91       	pop	r24
     5d6:	7f 91       	pop	r23
     5d8:	6f 91       	pop	r22
     5da:	5f 91       	pop	r21
     5dc:	4f 91       	pop	r20
     5de:	3f 91       	pop	r19
     5e0:	2f 91       	pop	r18
     5e2:	0f 90       	pop	r0
     5e4:	0f be       	out	0x3f, r0	; 63
     5e6:	0f 90       	pop	r0
     5e8:	1f 90       	pop	r1
     5ea:	18 95       	reti

000005ec <__vector_4>:


void __vector_4(void) __attribute__((signal));
void __vector_4(void)
{
     5ec:	1f 92       	push	r1
     5ee:	0f 92       	push	r0
     5f0:	0f b6       	in	r0, 0x3f	; 63
     5f2:	0f 92       	push	r0
     5f4:	11 24       	eor	r1, r1
     5f6:	2f 93       	push	r18
     5f8:	3f 93       	push	r19
     5fa:	4f 93       	push	r20
     5fc:	5f 93       	push	r21
     5fe:	6f 93       	push	r22
     600:	7f 93       	push	r23
     602:	8f 93       	push	r24
     604:	9f 93       	push	r25
     606:	af 93       	push	r26
     608:	bf 93       	push	r27
     60a:	ef 93       	push	r30
     60c:	ff 93       	push	r31
TIMER2COMP();
     60e:	e0 91 d2 00 	lds	r30, 0x00D2
     612:	f0 91 d3 00 	lds	r31, 0x00D3
     616:	09 95       	icall
}
     618:	ff 91       	pop	r31
     61a:	ef 91       	pop	r30
     61c:	bf 91       	pop	r27
     61e:	af 91       	pop	r26
     620:	9f 91       	pop	r25
     622:	8f 91       	pop	r24
     624:	7f 91       	pop	r23
     626:	6f 91       	pop	r22
     628:	5f 91       	pop	r21
     62a:	4f 91       	pop	r20
     62c:	3f 91       	pop	r19
     62e:	2f 91       	pop	r18
     630:	0f 90       	pop	r0
     632:	0f be       	out	0x3f, r0	; 63
     634:	0f 90       	pop	r0
     636:	1f 90       	pop	r1
     638:	18 95       	reti

0000063a <__vector_5>:


void __vector_5(void) __attribute__((signal));
void __vector_5(void)
{
     63a:	1f 92       	push	r1
     63c:	0f 92       	push	r0
     63e:	0f b6       	in	r0, 0x3f	; 63
     640:	0f 92       	push	r0
     642:	11 24       	eor	r1, r1
     644:	2f 93       	push	r18
     646:	3f 93       	push	r19
     648:	4f 93       	push	r20
     64a:	5f 93       	push	r21
     64c:	6f 93       	push	r22
     64e:	7f 93       	push	r23
     650:	8f 93       	push	r24
     652:	9f 93       	push	r25
     654:	af 93       	push	r26
     656:	bf 93       	push	r27
     658:	ef 93       	push	r30
     65a:	ff 93       	push	r31
  TIMER2OVF();
     65c:	e0 91 b4 00 	lds	r30, 0x00B4
     660:	f0 91 b5 00 	lds	r31, 0x00B5
     664:	09 95       	icall
}
     666:	ff 91       	pop	r31
     668:	ef 91       	pop	r30
     66a:	bf 91       	pop	r27
     66c:	af 91       	pop	r26
     66e:	9f 91       	pop	r25
     670:	8f 91       	pop	r24
     672:	7f 91       	pop	r23
     674:	6f 91       	pop	r22
     676:	5f 91       	pop	r21
     678:	4f 91       	pop	r20
     67a:	3f 91       	pop	r19
     67c:	2f 91       	pop	r18
     67e:	0f 90       	pop	r0
     680:	0f be       	out	0x3f, r0	; 63
     682:	0f 90       	pop	r0
     684:	1f 90       	pop	r1
     686:	18 95       	reti

00000688 <__vector_6>:

void __vector_6(void) __attribute__((signal));
void __vector_6(void)
{
     688:	1f 92       	push	r1
     68a:	0f 92       	push	r0
     68c:	0f b6       	in	r0, 0x3f	; 63
     68e:	0f 92       	push	r0
     690:	11 24       	eor	r1, r1
     692:	2f 93       	push	r18
     694:	3f 93       	push	r19
     696:	4f 93       	push	r20
     698:	5f 93       	push	r21
     69a:	6f 93       	push	r22
     69c:	7f 93       	push	r23
     69e:	8f 93       	push	r24
     6a0:	9f 93       	push	r25
     6a2:	af 93       	push	r26
     6a4:	bf 93       	push	r27
     6a6:	ef 93       	push	r30
     6a8:	ff 93       	push	r31
  TIMER1CAPT();
     6aa:	e0 91 ce 00 	lds	r30, 0x00CE
     6ae:	f0 91 cf 00 	lds	r31, 0x00CF
     6b2:	09 95       	icall
}
     6b4:	ff 91       	pop	r31
     6b6:	ef 91       	pop	r30
     6b8:	bf 91       	pop	r27
     6ba:	af 91       	pop	r26
     6bc:	9f 91       	pop	r25
     6be:	8f 91       	pop	r24
     6c0:	7f 91       	pop	r23
     6c2:	6f 91       	pop	r22
     6c4:	5f 91       	pop	r21
     6c6:	4f 91       	pop	r20
     6c8:	3f 91       	pop	r19
     6ca:	2f 91       	pop	r18
     6cc:	0f 90       	pop	r0
     6ce:	0f be       	out	0x3f, r0	; 63
     6d0:	0f 90       	pop	r0
     6d2:	1f 90       	pop	r1
     6d4:	18 95       	reti

000006d6 <__vector_7>:

void __vector_7(void) __attribute__((signal));
void __vector_7(void)
{
     6d6:	1f 92       	push	r1
     6d8:	0f 92       	push	r0
     6da:	0f b6       	in	r0, 0x3f	; 63
     6dc:	0f 92       	push	r0
     6de:	11 24       	eor	r1, r1
     6e0:	2f 93       	push	r18
     6e2:	3f 93       	push	r19
     6e4:	4f 93       	push	r20
     6e6:	5f 93       	push	r21
     6e8:	6f 93       	push	r22
     6ea:	7f 93       	push	r23
     6ec:	8f 93       	push	r24
     6ee:	9f 93       	push	r25
     6f0:	af 93       	push	r26
     6f2:	bf 93       	push	r27
     6f4:	ef 93       	push	r30
     6f6:	ff 93       	push	r31
TIMER1COMPA();
     6f8:	e0 91 ba 00 	lds	r30, 0x00BA
     6fc:	f0 91 bb 00 	lds	r31, 0x00BB
     700:	09 95       	icall
}
     702:	ff 91       	pop	r31
     704:	ef 91       	pop	r30
     706:	bf 91       	pop	r27
     708:	af 91       	pop	r26
     70a:	9f 91       	pop	r25
     70c:	8f 91       	pop	r24
     70e:	7f 91       	pop	r23
     710:	6f 91       	pop	r22
     712:	5f 91       	pop	r21
     714:	4f 91       	pop	r20
     716:	3f 91       	pop	r19
     718:	2f 91       	pop	r18
     71a:	0f 90       	pop	r0
     71c:	0f be       	out	0x3f, r0	; 63
     71e:	0f 90       	pop	r0
     720:	1f 90       	pop	r1
     722:	18 95       	reti

00000724 <__vector_8>:

void __vector_8(void) __attribute__((signal));
void __vector_8(void)
{
     724:	1f 92       	push	r1
     726:	0f 92       	push	r0
     728:	0f b6       	in	r0, 0x3f	; 63
     72a:	0f 92       	push	r0
     72c:	11 24       	eor	r1, r1
     72e:	2f 93       	push	r18
     730:	3f 93       	push	r19
     732:	4f 93       	push	r20
     734:	5f 93       	push	r21
     736:	6f 93       	push	r22
     738:	7f 93       	push	r23
     73a:	8f 93       	push	r24
     73c:	9f 93       	push	r25
     73e:	af 93       	push	r26
     740:	bf 93       	push	r27
     742:	ef 93       	push	r30
     744:	ff 93       	push	r31
  TIMER1COMPB();
     746:	e0 91 b8 00 	lds	r30, 0x00B8
     74a:	f0 91 b9 00 	lds	r31, 0x00B9
     74e:	09 95       	icall
}
     750:	ff 91       	pop	r31
     752:	ef 91       	pop	r30
     754:	bf 91       	pop	r27
     756:	af 91       	pop	r26
     758:	9f 91       	pop	r25
     75a:	8f 91       	pop	r24
     75c:	7f 91       	pop	r23
     75e:	6f 91       	pop	r22
     760:	5f 91       	pop	r21
     762:	4f 91       	pop	r20
     764:	3f 91       	pop	r19
     766:	2f 91       	pop	r18
     768:	0f 90       	pop	r0
     76a:	0f be       	out	0x3f, r0	; 63
     76c:	0f 90       	pop	r0
     76e:	1f 90       	pop	r1
     770:	18 95       	reti

00000772 <__vector_9>:

void __vector_9(void) __attribute__((signal));
void __vector_9(void)
{
     772:	1f 92       	push	r1
     774:	0f 92       	push	r0
     776:	0f b6       	in	r0, 0x3f	; 63
     778:	0f 92       	push	r0
     77a:	11 24       	eor	r1, r1
     77c:	2f 93       	push	r18
     77e:	3f 93       	push	r19
     780:	4f 93       	push	r20
     782:	5f 93       	push	r21
     784:	6f 93       	push	r22
     786:	7f 93       	push	r23
     788:	8f 93       	push	r24
     78a:	9f 93       	push	r25
     78c:	af 93       	push	r26
     78e:	bf 93       	push	r27
     790:	ef 93       	push	r30
     792:	ff 93       	push	r31
  TIMER1OVF();
     794:	e0 91 d0 00 	lds	r30, 0x00D0
     798:	f0 91 d1 00 	lds	r31, 0x00D1
     79c:	09 95       	icall
}
     79e:	ff 91       	pop	r31
     7a0:	ef 91       	pop	r30
     7a2:	bf 91       	pop	r27
     7a4:	af 91       	pop	r26
     7a6:	9f 91       	pop	r25
     7a8:	8f 91       	pop	r24
     7aa:	7f 91       	pop	r23
     7ac:	6f 91       	pop	r22
     7ae:	5f 91       	pop	r21
     7b0:	4f 91       	pop	r20
     7b2:	3f 91       	pop	r19
     7b4:	2f 91       	pop	r18
     7b6:	0f 90       	pop	r0
     7b8:	0f be       	out	0x3f, r0	; 63
     7ba:	0f 90       	pop	r0
     7bc:	1f 90       	pop	r1
     7be:	18 95       	reti

000007c0 <__vector_10>:

void __vector_10(void) __attribute__((signal));
void __vector_10(void)
{
     7c0:	1f 92       	push	r1
     7c2:	0f 92       	push	r0
     7c4:	0f b6       	in	r0, 0x3f	; 63
     7c6:	0f 92       	push	r0
     7c8:	11 24       	eor	r1, r1
     7ca:	2f 93       	push	r18
     7cc:	3f 93       	push	r19
     7ce:	4f 93       	push	r20
     7d0:	5f 93       	push	r21
     7d2:	6f 93       	push	r22
     7d4:	7f 93       	push	r23
     7d6:	8f 93       	push	r24
     7d8:	9f 93       	push	r25
     7da:	af 93       	push	r26
     7dc:	bf 93       	push	r27
     7de:	ef 93       	push	r30
     7e0:	ff 93       	push	r31

  TIMER0COMP();
     7e2:	e0 91 c8 00 	lds	r30, 0x00C8
     7e6:	f0 91 c9 00 	lds	r31, 0x00C9
     7ea:	09 95       	icall
}
     7ec:	ff 91       	pop	r31
     7ee:	ef 91       	pop	r30
     7f0:	bf 91       	pop	r27
     7f2:	af 91       	pop	r26
     7f4:	9f 91       	pop	r25
     7f6:	8f 91       	pop	r24
     7f8:	7f 91       	pop	r23
     7fa:	6f 91       	pop	r22
     7fc:	5f 91       	pop	r21
     7fe:	4f 91       	pop	r20
     800:	3f 91       	pop	r19
     802:	2f 91       	pop	r18
     804:	0f 90       	pop	r0
     806:	0f be       	out	0x3f, r0	; 63
     808:	0f 90       	pop	r0
     80a:	1f 90       	pop	r1
     80c:	18 95       	reti

0000080e <__vector_11>:

void __vector_11(void) __attribute__((signal));
void __vector_11(void)
{
     80e:	1f 92       	push	r1
     810:	0f 92       	push	r0
     812:	0f b6       	in	r0, 0x3f	; 63
     814:	0f 92       	push	r0
     816:	11 24       	eor	r1, r1
     818:	2f 93       	push	r18
     81a:	3f 93       	push	r19
     81c:	4f 93       	push	r20
     81e:	5f 93       	push	r21
     820:	6f 93       	push	r22
     822:	7f 93       	push	r23
     824:	8f 93       	push	r24
     826:	9f 93       	push	r25
     828:	af 93       	push	r26
     82a:	bf 93       	push	r27
     82c:	ef 93       	push	r30
     82e:	ff 93       	push	r31

  TIMER0OVF_INT();
     830:	e0 91 6e 00 	lds	r30, 0x006E
     834:	f0 91 6f 00 	lds	r31, 0x006F
     838:	09 95       	icall
}
     83a:	ff 91       	pop	r31
     83c:	ef 91       	pop	r30
     83e:	bf 91       	pop	r27
     840:	af 91       	pop	r26
     842:	9f 91       	pop	r25
     844:	8f 91       	pop	r24
     846:	7f 91       	pop	r23
     848:	6f 91       	pop	r22
     84a:	5f 91       	pop	r21
     84c:	4f 91       	pop	r20
     84e:	3f 91       	pop	r19
     850:	2f 91       	pop	r18
     852:	0f 90       	pop	r0
     854:	0f be       	out	0x3f, r0	; 63
     856:	0f 90       	pop	r0
     858:	1f 90       	pop	r1
     85a:	18 95       	reti

0000085c <__vector_12>:

void __vector_12(void) __attribute__((signal));
void __vector_12(void)
{
     85c:	1f 92       	push	r1
     85e:	0f 92       	push	r0
     860:	0f b6       	in	r0, 0x3f	; 63
     862:	0f 92       	push	r0
     864:	11 24       	eor	r1, r1
     866:	2f 93       	push	r18
     868:	3f 93       	push	r19
     86a:	4f 93       	push	r20
     86c:	5f 93       	push	r21
     86e:	6f 93       	push	r22
     870:	7f 93       	push	r23
     872:	8f 93       	push	r24
     874:	9f 93       	push	r25
     876:	af 93       	push	r26
     878:	bf 93       	push	r27
     87a:	ef 93       	push	r30
     87c:	ff 93       	push	r31
  SPI_STC();
     87e:	e0 91 bc 00 	lds	r30, 0x00BC
     882:	f0 91 bd 00 	lds	r31, 0x00BD
     886:	09 95       	icall
}
     888:	ff 91       	pop	r31
     88a:	ef 91       	pop	r30
     88c:	bf 91       	pop	r27
     88e:	af 91       	pop	r26
     890:	9f 91       	pop	r25
     892:	8f 91       	pop	r24
     894:	7f 91       	pop	r23
     896:	6f 91       	pop	r22
     898:	5f 91       	pop	r21
     89a:	4f 91       	pop	r20
     89c:	3f 91       	pop	r19
     89e:	2f 91       	pop	r18
     8a0:	0f 90       	pop	r0
     8a2:	0f be       	out	0x3f, r0	; 63
     8a4:	0f 90       	pop	r0
     8a6:	1f 90       	pop	r1
     8a8:	18 95       	reti

000008aa <__vector_13>:

void __vector_13(void) __attribute__((signal));
void __vector_13(void)
{
     8aa:	1f 92       	push	r1
     8ac:	0f 92       	push	r0
     8ae:	0f b6       	in	r0, 0x3f	; 63
     8b0:	0f 92       	push	r0
     8b2:	11 24       	eor	r1, r1
     8b4:	2f 93       	push	r18
     8b6:	3f 93       	push	r19
     8b8:	4f 93       	push	r20
     8ba:	5f 93       	push	r21
     8bc:	6f 93       	push	r22
     8be:	7f 93       	push	r23
     8c0:	8f 93       	push	r24
     8c2:	9f 93       	push	r25
     8c4:	af 93       	push	r26
     8c6:	bf 93       	push	r27
     8c8:	ef 93       	push	r30
     8ca:	ff 93       	push	r31
  USART_RXC();
     8cc:	e0 91 b2 00 	lds	r30, 0x00B2
     8d0:	f0 91 b3 00 	lds	r31, 0x00B3
     8d4:	09 95       	icall
}
     8d6:	ff 91       	pop	r31
     8d8:	ef 91       	pop	r30
     8da:	bf 91       	pop	r27
     8dc:	af 91       	pop	r26
     8de:	9f 91       	pop	r25
     8e0:	8f 91       	pop	r24
     8e2:	7f 91       	pop	r23
     8e4:	6f 91       	pop	r22
     8e6:	5f 91       	pop	r21
     8e8:	4f 91       	pop	r20
     8ea:	3f 91       	pop	r19
     8ec:	2f 91       	pop	r18
     8ee:	0f 90       	pop	r0
     8f0:	0f be       	out	0x3f, r0	; 63
     8f2:	0f 90       	pop	r0
     8f4:	1f 90       	pop	r1
     8f6:	18 95       	reti

000008f8 <__vector_14>:

void __vector_14(void) __attribute__((signal));
void __vector_14(void)
{
     8f8:	1f 92       	push	r1
     8fa:	0f 92       	push	r0
     8fc:	0f b6       	in	r0, 0x3f	; 63
     8fe:	0f 92       	push	r0
     900:	11 24       	eor	r1, r1
     902:	2f 93       	push	r18
     904:	3f 93       	push	r19
     906:	4f 93       	push	r20
     908:	5f 93       	push	r21
     90a:	6f 93       	push	r22
     90c:	7f 93       	push	r23
     90e:	8f 93       	push	r24
     910:	9f 93       	push	r25
     912:	af 93       	push	r26
     914:	bf 93       	push	r27
     916:	ef 93       	push	r30
     918:	ff 93       	push	r31
  USART_UDRE();
     91a:	e0 91 ca 00 	lds	r30, 0x00CA
     91e:	f0 91 cb 00 	lds	r31, 0x00CB
     922:	09 95       	icall
}
     924:	ff 91       	pop	r31
     926:	ef 91       	pop	r30
     928:	bf 91       	pop	r27
     92a:	af 91       	pop	r26
     92c:	9f 91       	pop	r25
     92e:	8f 91       	pop	r24
     930:	7f 91       	pop	r23
     932:	6f 91       	pop	r22
     934:	5f 91       	pop	r21
     936:	4f 91       	pop	r20
     938:	3f 91       	pop	r19
     93a:	2f 91       	pop	r18
     93c:	0f 90       	pop	r0
     93e:	0f be       	out	0x3f, r0	; 63
     940:	0f 90       	pop	r0
     942:	1f 90       	pop	r1
     944:	18 95       	reti

00000946 <__vector_15>:

void __vector_15(void) __attribute__((signal));
void __vector_15(void)
{
     946:	1f 92       	push	r1
     948:	0f 92       	push	r0
     94a:	0f b6       	in	r0, 0x3f	; 63
     94c:	0f 92       	push	r0
     94e:	11 24       	eor	r1, r1
     950:	2f 93       	push	r18
     952:	3f 93       	push	r19
     954:	4f 93       	push	r20
     956:	5f 93       	push	r21
     958:	6f 93       	push	r22
     95a:	7f 93       	push	r23
     95c:	8f 93       	push	r24
     95e:	9f 93       	push	r25
     960:	af 93       	push	r26
     962:	bf 93       	push	r27
     964:	ef 93       	push	r30
     966:	ff 93       	push	r31
  USART_TXC();
     968:	e0 91 c6 00 	lds	r30, 0x00C6
     96c:	f0 91 c7 00 	lds	r31, 0x00C7
     970:	09 95       	icall
}
     972:	ff 91       	pop	r31
     974:	ef 91       	pop	r30
     976:	bf 91       	pop	r27
     978:	af 91       	pop	r26
     97a:	9f 91       	pop	r25
     97c:	8f 91       	pop	r24
     97e:	7f 91       	pop	r23
     980:	6f 91       	pop	r22
     982:	5f 91       	pop	r21
     984:	4f 91       	pop	r20
     986:	3f 91       	pop	r19
     988:	2f 91       	pop	r18
     98a:	0f 90       	pop	r0
     98c:	0f be       	out	0x3f, r0	; 63
     98e:	0f 90       	pop	r0
     990:	1f 90       	pop	r1
     992:	18 95       	reti

00000994 <__vector_16>:

void __vector_16(void) __attribute__((signal));
void __vector_16(void)
{
     994:	1f 92       	push	r1
     996:	0f 92       	push	r0
     998:	0f b6       	in	r0, 0x3f	; 63
     99a:	0f 92       	push	r0
     99c:	11 24       	eor	r1, r1
     99e:	2f 93       	push	r18
     9a0:	3f 93       	push	r19
     9a2:	4f 93       	push	r20
     9a4:	5f 93       	push	r21
     9a6:	6f 93       	push	r22
     9a8:	7f 93       	push	r23
     9aa:	8f 93       	push	r24
     9ac:	9f 93       	push	r25
     9ae:	af 93       	push	r26
     9b0:	bf 93       	push	r27
     9b2:	ef 93       	push	r30
     9b4:	ff 93       	push	r31
  ADC_INT();
     9b6:	e0 91 c0 00 	lds	r30, 0x00C0
     9ba:	f0 91 c1 00 	lds	r31, 0x00C1
     9be:	09 95       	icall
}
     9c0:	ff 91       	pop	r31
     9c2:	ef 91       	pop	r30
     9c4:	bf 91       	pop	r27
     9c6:	af 91       	pop	r26
     9c8:	9f 91       	pop	r25
     9ca:	8f 91       	pop	r24
     9cc:	7f 91       	pop	r23
     9ce:	6f 91       	pop	r22
     9d0:	5f 91       	pop	r21
     9d2:	4f 91       	pop	r20
     9d4:	3f 91       	pop	r19
     9d6:	2f 91       	pop	r18
     9d8:	0f 90       	pop	r0
     9da:	0f be       	out	0x3f, r0	; 63
     9dc:	0f 90       	pop	r0
     9de:	1f 90       	pop	r1
     9e0:	18 95       	reti

000009e2 <__vector_17>:

void __vector_17(void) __attribute__((signal));
void __vector_17(void)
{
     9e2:	1f 92       	push	r1
     9e4:	0f 92       	push	r0
     9e6:	0f b6       	in	r0, 0x3f	; 63
     9e8:	0f 92       	push	r0
     9ea:	11 24       	eor	r1, r1
     9ec:	2f 93       	push	r18
     9ee:	3f 93       	push	r19
     9f0:	4f 93       	push	r20
     9f2:	5f 93       	push	r21
     9f4:	6f 93       	push	r22
     9f6:	7f 93       	push	r23
     9f8:	8f 93       	push	r24
     9fa:	9f 93       	push	r25
     9fc:	af 93       	push	r26
     9fe:	bf 93       	push	r27
     a00:	ef 93       	push	r30
     a02:	ff 93       	push	r31
  EE_RDY();
     a04:	e0 91 c2 00 	lds	r30, 0x00C2
     a08:	f0 91 c3 00 	lds	r31, 0x00C3
     a0c:	09 95       	icall
}
     a0e:	ff 91       	pop	r31
     a10:	ef 91       	pop	r30
     a12:	bf 91       	pop	r27
     a14:	af 91       	pop	r26
     a16:	9f 91       	pop	r25
     a18:	8f 91       	pop	r24
     a1a:	7f 91       	pop	r23
     a1c:	6f 91       	pop	r22
     a1e:	5f 91       	pop	r21
     a20:	4f 91       	pop	r20
     a22:	3f 91       	pop	r19
     a24:	2f 91       	pop	r18
     a26:	0f 90       	pop	r0
     a28:	0f be       	out	0x3f, r0	; 63
     a2a:	0f 90       	pop	r0
     a2c:	1f 90       	pop	r1
     a2e:	18 95       	reti

00000a30 <__vector_18>:

void __vector_18(void) __attribute__((signal));
void __vector_18(void)
{
     a30:	1f 92       	push	r1
     a32:	0f 92       	push	r0
     a34:	0f b6       	in	r0, 0x3f	; 63
     a36:	0f 92       	push	r0
     a38:	11 24       	eor	r1, r1
     a3a:	2f 93       	push	r18
     a3c:	3f 93       	push	r19
     a3e:	4f 93       	push	r20
     a40:	5f 93       	push	r21
     a42:	6f 93       	push	r22
     a44:	7f 93       	push	r23
     a46:	8f 93       	push	r24
     a48:	9f 93       	push	r25
     a4a:	af 93       	push	r26
     a4c:	bf 93       	push	r27
     a4e:	ef 93       	push	r30
     a50:	ff 93       	push	r31
  ANA_COMP();
     a52:	e0 91 be 00 	lds	r30, 0x00BE
     a56:	f0 91 bf 00 	lds	r31, 0x00BF
     a5a:	09 95       	icall
}
     a5c:	ff 91       	pop	r31
     a5e:	ef 91       	pop	r30
     a60:	bf 91       	pop	r27
     a62:	af 91       	pop	r26
     a64:	9f 91       	pop	r25
     a66:	8f 91       	pop	r24
     a68:	7f 91       	pop	r23
     a6a:	6f 91       	pop	r22
     a6c:	5f 91       	pop	r21
     a6e:	4f 91       	pop	r20
     a70:	3f 91       	pop	r19
     a72:	2f 91       	pop	r18
     a74:	0f 90       	pop	r0
     a76:	0f be       	out	0x3f, r0	; 63
     a78:	0f 90       	pop	r0
     a7a:	1f 90       	pop	r1
     a7c:	18 95       	reti

00000a7e <__vector_19>:

void __vector_19(void) __attribute__((signal));
void __vector_19(void)
{
     a7e:	1f 92       	push	r1
     a80:	0f 92       	push	r0
     a82:	0f b6       	in	r0, 0x3f	; 63
     a84:	0f 92       	push	r0
     a86:	11 24       	eor	r1, r1
     a88:	2f 93       	push	r18
     a8a:	3f 93       	push	r19
     a8c:	4f 93       	push	r20
     a8e:	5f 93       	push	r21
     a90:	6f 93       	push	r22
     a92:	7f 93       	push	r23
     a94:	8f 93       	push	r24
     a96:	9f 93       	push	r25
     a98:	af 93       	push	r26
     a9a:	bf 93       	push	r27
     a9c:	ef 93       	push	r30
     a9e:	ff 93       	push	r31
  TWI_I2C();
     aa0:	e0 91 b0 00 	lds	r30, 0x00B0
     aa4:	f0 91 b1 00 	lds	r31, 0x00B1
     aa8:	09 95       	icall
}
     aaa:	ff 91       	pop	r31
     aac:	ef 91       	pop	r30
     aae:	bf 91       	pop	r27
     ab0:	af 91       	pop	r26
     ab2:	9f 91       	pop	r25
     ab4:	8f 91       	pop	r24
     ab6:	7f 91       	pop	r23
     ab8:	6f 91       	pop	r22
     aba:	5f 91       	pop	r21
     abc:	4f 91       	pop	r20
     abe:	3f 91       	pop	r19
     ac0:	2f 91       	pop	r18
     ac2:	0f 90       	pop	r0
     ac4:	0f be       	out	0x3f, r0	; 63
     ac6:	0f 90       	pop	r0
     ac8:	1f 90       	pop	r1
     aca:	18 95       	reti

00000acc <__vector_20>:

void __vector_20(void) __attribute__((signal));
void __vector_20(void)
{
     acc:	1f 92       	push	r1
     ace:	0f 92       	push	r0
     ad0:	0f b6       	in	r0, 0x3f	; 63
     ad2:	0f 92       	push	r0
     ad4:	11 24       	eor	r1, r1
     ad6:	2f 93       	push	r18
     ad8:	3f 93       	push	r19
     ada:	4f 93       	push	r20
     adc:	5f 93       	push	r21
     ade:	6f 93       	push	r22
     ae0:	7f 93       	push	r23
     ae2:	8f 93       	push	r24
     ae4:	9f 93       	push	r25
     ae6:	af 93       	push	r26
     ae8:	bf 93       	push	r27
     aea:	ef 93       	push	r30
     aec:	ff 93       	push	r31
  SPM_RDY();
     aee:	e0 91 b6 00 	lds	r30, 0x00B6
     af2:	f0 91 b7 00 	lds	r31, 0x00B7
     af6:	09 95       	icall
}
     af8:	ff 91       	pop	r31
     afa:	ef 91       	pop	r30
     afc:	bf 91       	pop	r27
     afe:	af 91       	pop	r26
     b00:	9f 91       	pop	r25
     b02:	8f 91       	pop	r24
     b04:	7f 91       	pop	r23
     b06:	6f 91       	pop	r22
     b08:	5f 91       	pop	r21
     b0a:	4f 91       	pop	r20
     b0c:	3f 91       	pop	r19
     b0e:	2f 91       	pop	r18
     b10:	0f 90       	pop	r0
     b12:	0f be       	out	0x3f, r0	; 63
     b14:	0f 90       	pop	r0
     b16:	1f 90       	pop	r1
     b18:	18 95       	reti

00000b1a <main>:

#include "car_sm.h"
uint16_t Distance=0;
int main(void)
{
 Car_SM_Init();
     b1a:	0e 94 49 00 	call	0x92	; 0x92 <Car_SM_Init>
    while(1)
    {
        Car_SM_Update();
     b1e:	0e 94 4e 00 	call	0x9c	; 0x9c <Car_SM_Update>
     b22:	fd cf       	rjmp	.-6      	; 0xb1e <main+0x4>

00000b24 <Motor_Init>:
#include "motor.h"
static uint8_t gsv_is_Started=0;
static uint8_t gsv_is_intialized=0;
ERROR_STATUS Motor_Init(uint8_t Motor_Number)
{uint8_t Ret=0;
    switch(Motor_Number)
     b24:	82 30       	cpi	r24, 0x02	; 2
     b26:	79 f0       	breq	.+30     	; 0xb46 <Motor_Init+0x22>
     b28:	83 30       	cpi	r24, 0x03	; 3
     b2a:	c9 f0       	breq	.+50     	; 0xb5e <Motor_Init+0x3a>
     b2c:	81 30       	cpi	r24, 0x01	; 1
     b2e:	39 f5       	brne	.+78     	; 0xb7e <Motor_Init+0x5a>
    {
        case MOTOR_1:
        /*Enable PWM Bit...output*/
        /*IN1*/
        /*IN2*/
			gsv_is_intialized=MOTOR_1;
     b30:	80 93 a5 00 	sts	0x00A5, r24
			Ret=Pwm_Init(&PWM_Configuration_1A);
     b34:	81 e8       	ldi	r24, 0x81	; 129
     b36:	90 e0       	ldi	r25, 0x00	; 0
     b38:	0e 94 da 06 	call	0xdb4	; 0xdb4 <Pwm_Init>
			Ret=DIO_init(&Motorone);
     b3c:	88 e7       	ldi	r24, 0x78	; 120
     b3e:	90 e0       	ldi	r25, 0x00	; 0
     b40:	0e 94 65 00 	call	0xca	; 0xca <DIO_init>

			  break;
     b44:	08 95       	ret

          case MOTOR_2:
				gsv_is_intialized=MOTOR_2;
     b46:	82 e0       	ldi	r24, 0x02	; 2
     b48:	80 93 a5 00 	sts	0x00A5, r24
				Ret=Pwm_Init(&PWM_Configuration_1B);
     b4c:	8f e7       	ldi	r24, 0x7F	; 127
     b4e:	90 e0       	ldi	r25, 0x00	; 0
     b50:	0e 94 da 06 	call	0xdb4	; 0xdb4 <Pwm_Init>
				Ret=DIO_init(&Motortwo);
     b54:	85 e7       	ldi	r24, 0x75	; 117
     b56:	90 e0       	ldi	r25, 0x00	; 0
     b58:	0e 94 65 00 	call	0xca	; 0xca <DIO_init>
				break;
     b5c:	08 95       	ret
				/*IN1*/
				/*IN2*/
				/*ENABLE PWM BIT FOR MOTOR 2*/
				/*IN3*/
				/*IN4*/
				gsv_is_intialized=ALL_MOTOR;
     b5e:	83 e0       	ldi	r24, 0x03	; 3
     b60:	80 93 a5 00 	sts	0x00A5, r24
			Ret=Pwm_Init(&PWM_Configuration_1A);
     b64:	81 e8       	ldi	r24, 0x81	; 129
     b66:	90 e0       	ldi	r25, 0x00	; 0
     b68:	0e 94 da 06 	call	0xdb4	; 0xdb4 <Pwm_Init>
			Ret=Pwm_Init(&PWM_Configuration_1B);
     b6c:	8f e7       	ldi	r24, 0x7F	; 127
     b6e:	90 e0       	ldi	r25, 0x00	; 0
     b70:	0e 94 da 06 	call	0xdb4	; 0xdb4 <Pwm_Init>
			Ret=DIO_init(&ALL_Motor);
     b74:	82 e7       	ldi	r24, 0x72	; 114
     b76:	90 e0       	ldi	r25, 0x00	; 0
     b78:	0e 94 65 00 	call	0xca	; 0xca <DIO_init>
				break;
     b7c:	08 95       	ret
			   }
      default:
      Ret=E_NOK;
     b7e:	81 e0       	ldi	r24, 0x01	; 1
      break;
    }
return Ret;
}
     b80:	08 95       	ret

00000b82 <Motor_Direction>:

ERROR_STATUS Motor_Direction(uint8_t Motor_Number, uint8_t Motor_Direction)
{uint8_t Ret=0;

  switch(Motor_Number)
     b82:	82 30       	cpi	r24, 0x02	; 2
     b84:	79 f1       	breq	.+94     	; 0xbe4 <Motor_Direction+0x62>
     b86:	83 30       	cpi	r24, 0x03	; 3
     b88:	09 f4       	brne	.+2      	; 0xb8c <Motor_Direction+0xa>
     b8a:	55 c0       	rjmp	.+170    	; 0xc36 <Motor_Direction+0xb4>
     b8c:	81 30       	cpi	r24, 0x01	; 1
     b8e:	09 f0       	breq	.+2      	; 0xb92 <Motor_Direction+0x10>
     b90:	99 c0       	rjmp	.+306    	; 0xcc4 <Motor_Direction+0x142>
  {
  	case MOTOR_1:{
  	switch(Motor_Direction)
     b92:	61 30       	cpi	r22, 0x01	; 1
     b94:	31 f0       	breq	.+12     	; 0xba2 <Motor_Direction+0x20>
     b96:	61 30       	cpi	r22, 0x01	; 1
     b98:	d0 f0       	brcs	.+52     	; 0xbce <Motor_Direction+0x4c>
     b9a:	62 30       	cpi	r22, 0x02	; 2
     b9c:	09 f0       	breq	.+2      	; 0xba0 <Motor_Direction+0x1e>
     b9e:	94 c0       	rjmp	.+296    	; 0xcc8 <Motor_Direction+0x146>
     ba0:	0b c0       	rjmp	.+22     	; 0xbb8 <Motor_Direction+0x36>
  	{
  		case MOTOR_FORWARD:
  		{
  			Ret=DIO_Write(MOTOR_OUT_1A_GPIO,MOTOR_OUT_1A_BIT,HIGH);
     ba2:	83 e0       	ldi	r24, 0x03	; 3
     ba4:	64 e0       	ldi	r22, 0x04	; 4
     ba6:	4f ef       	ldi	r20, 0xFF	; 255
     ba8:	0e 94 bc 00 	call	0x178	; 0x178 <DIO_Write>
  			Ret=DIO_Write (MOTOR_OUT_1B_GPIO,MOTOR_OUT_1B_BIT,LOW);
     bac:	83 e0       	ldi	r24, 0x03	; 3
     bae:	68 e0       	ldi	r22, 0x08	; 8
     bb0:	40 e0       	ldi	r20, 0x00	; 0
     bb2:	0e 94 bc 00 	call	0x178	; 0x178 <DIO_Write>

  			break;
     bb6:	08 95       	ret
  		}
  		case MOTOR_BACKWARD:
  		{
  		Ret=DIO_Write(MOTOR_OUT_1B_GPIO,MOTOR_OUT_1B_BIT,HIGH);
     bb8:	83 e0       	ldi	r24, 0x03	; 3
     bba:	68 e0       	ldi	r22, 0x08	; 8
     bbc:	4f ef       	ldi	r20, 0xFF	; 255
     bbe:	0e 94 bc 00 	call	0x178	; 0x178 <DIO_Write>
        Ret=DIO_Write(MOTOR_OUT_1A_GPIO,MOTOR_OUT_1A_BIT,LOW);
     bc2:	83 e0       	ldi	r24, 0x03	; 3
     bc4:	64 e0       	ldi	r22, 0x04	; 4
     bc6:	40 e0       	ldi	r20, 0x00	; 0
     bc8:	0e 94 bc 00 	call	0x178	; 0x178 <DIO_Write>

  			break;
     bcc:	08 95       	ret
  		}
  		case MOTOR_STOP:{Ret=DIO_Write(MOTOR_OUT_1A_GPIO,MOTOR_OUT_1A_BIT,LOW);
     bce:	83 e0       	ldi	r24, 0x03	; 3
     bd0:	64 e0       	ldi	r22, 0x04	; 4
     bd2:	40 e0       	ldi	r20, 0x00	; 0
     bd4:	0e 94 bc 00 	call	0x178	; 0x178 <DIO_Write>
  		Ret=DIO_Write(MOTOR_OUT_1B_GPIO,MOTOR_OUT_1B_BIT,LOW);
     bd8:	83 e0       	ldi	r24, 0x03	; 3
     bda:	68 e0       	ldi	r22, 0x08	; 8
     bdc:	40 e0       	ldi	r20, 0x00	; 0
     bde:	0e 94 bc 00 	call	0x178	; 0x178 <DIO_Write>
  		break;}
     be2:	08 95       	ret
  	}
  		break;
  	}
  	case MOTOR_2:
  	{
  		switch(Motor_Direction)
     be4:	61 30       	cpi	r22, 0x01	; 1
     be6:	31 f0       	breq	.+12     	; 0xbf4 <Motor_Direction+0x72>
     be8:	61 30       	cpi	r22, 0x01	; 1
     bea:	d0 f0       	brcs	.+52     	; 0xc20 <Motor_Direction+0x9e>
     bec:	62 30       	cpi	r22, 0x02	; 2
     bee:	09 f0       	breq	.+2      	; 0xbf2 <Motor_Direction+0x70>
     bf0:	6d c0       	rjmp	.+218    	; 0xccc <Motor_Direction+0x14a>
     bf2:	0b c0       	rjmp	.+22     	; 0xc0a <Motor_Direction+0x88>
  		{
  			case MOTOR_FORWARD:
  			{
  				Ret=DIO_Write(MOTOR_OUT_2B_GPIO,MOTOR_OUT_2B_BIT,HIGH);
     bf4:	83 e0       	ldi	r24, 0x03	; 3
     bf6:	60 e8       	ldi	r22, 0x80	; 128
     bf8:	4f ef       	ldi	r20, 0xFF	; 255
     bfa:	0e 94 bc 00 	call	0x178	; 0x178 <DIO_Write>
          Ret=DIO_Write(MOTOR_OUT_2A_GPIO,MOTOR_OUT_2A_BIT,LOW);
     bfe:	83 e0       	ldi	r24, 0x03	; 3
     c00:	60 e4       	ldi	r22, 0x40	; 64
     c02:	40 e0       	ldi	r20, 0x00	; 0
     c04:	0e 94 bc 00 	call	0x178	; 0x178 <DIO_Write>

  				break;
     c08:	08 95       	ret
  			}
  			case MOTOR_BACKWARD:
  			{
  				Ret=DIO_Write(MOTOR_OUT_2A_GPIO,MOTOR_OUT_2A_BIT,HIGH);
     c0a:	83 e0       	ldi	r24, 0x03	; 3
     c0c:	60 e4       	ldi	r22, 0x40	; 64
     c0e:	4f ef       	ldi	r20, 0xFF	; 255
     c10:	0e 94 bc 00 	call	0x178	; 0x178 <DIO_Write>
  			Ret=DIO_Write(MOTOR_OUT_2B_GPIO,MOTOR_OUT_2B_BIT,LOW);
     c14:	83 e0       	ldi	r24, 0x03	; 3
     c16:	60 e8       	ldi	r22, 0x80	; 128
     c18:	40 e0       	ldi	r20, 0x00	; 0
     c1a:	0e 94 bc 00 	call	0x178	; 0x178 <DIO_Write>
  				break;
     c1e:	08 95       	ret
  			}
  			case MOTOR_STOP:
  			{
  				Ret=DIO_Write(MOTOR_OUT_2A_GPIO,MOTOR_OUT_2A_BIT,LOW);
     c20:	83 e0       	ldi	r24, 0x03	; 3
     c22:	60 e4       	ldi	r22, 0x40	; 64
     c24:	40 e0       	ldi	r20, 0x00	; 0
     c26:	0e 94 bc 00 	call	0x178	; 0x178 <DIO_Write>
  				Ret=DIO_Write(MOTOR_OUT_2B_GPIO,MOTOR_OUT_2B_BIT,LOW);
     c2a:	83 e0       	ldi	r24, 0x03	; 3
     c2c:	60 e8       	ldi	r22, 0x80	; 128
     c2e:	40 e0       	ldi	r20, 0x00	; 0
     c30:	0e 94 bc 00 	call	0x178	; 0x178 <DIO_Write>
  				break;
     c34:	08 95       	ret

  		break;
  	}
  	case ALL_MOTOR:
  	{
  switch(Motor_Direction)
     c36:	61 30       	cpi	r22, 0x01	; 1
     c38:	31 f0       	breq	.+12     	; 0xc46 <Motor_Direction+0xc4>
     c3a:	61 30       	cpi	r22, 0x01	; 1
     c3c:	70 f1       	brcs	.+92     	; 0xc9a <Motor_Direction+0x118>
     c3e:	62 30       	cpi	r22, 0x02	; 2
     c40:	09 f0       	breq	.+2      	; 0xc44 <Motor_Direction+0xc2>
     c42:	46 c0       	rjmp	.+140    	; 0xcd0 <Motor_Direction+0x14e>
     c44:	15 c0       	rjmp	.+42     	; 0xc70 <Motor_Direction+0xee>
  {
  	case MOTOR_FORWARD:
  	{
  		Ret=DIO_Write(MOTOR_OUT_1A_GPIO,MOTOR_OUT_1A_BIT,HIGH);
     c46:	83 e0       	ldi	r24, 0x03	; 3
     c48:	64 e0       	ldi	r22, 0x04	; 4
     c4a:	4f ef       	ldi	r20, 0xFF	; 255
     c4c:	0e 94 bc 00 	call	0x178	; 0x178 <DIO_Write>
  		Ret=DIO_Write(MOTOR_OUT_1B_GPIO,MOTOR_OUT_1B_BIT,LOW);
     c50:	83 e0       	ldi	r24, 0x03	; 3
     c52:	68 e0       	ldi	r22, 0x08	; 8
     c54:	40 e0       	ldi	r20, 0x00	; 0
     c56:	0e 94 bc 00 	call	0x178	; 0x178 <DIO_Write>

  	Ret=DIO_Write(MOTOR_OUT_2A_GPIO,MOTOR_OUT_2A_BIT,LOW);
     c5a:	83 e0       	ldi	r24, 0x03	; 3
     c5c:	60 e4       	ldi	r22, 0x40	; 64
     c5e:	40 e0       	ldi	r20, 0x00	; 0
     c60:	0e 94 bc 00 	call	0x178	; 0x178 <DIO_Write>
  		Ret=DIO_Write(MOTOR_OUT_2B_GPIO,MOTOR_OUT_2B_BIT,HIGH);
     c64:	83 e0       	ldi	r24, 0x03	; 3
     c66:	60 e8       	ldi	r22, 0x80	; 128
     c68:	4f ef       	ldi	r20, 0xFF	; 255
     c6a:	0e 94 bc 00 	call	0x178	; 0x178 <DIO_Write>

  		break;
     c6e:	08 95       	ret
  	}
  	case MOTOR_BACKWARD:
  	{

  		Ret=DIO_Write(MOTOR_OUT_1A_GPIO,MOTOR_OUT_1A_BIT,LOW);
     c70:	83 e0       	ldi	r24, 0x03	; 3
     c72:	64 e0       	ldi	r22, 0x04	; 4
     c74:	40 e0       	ldi	r20, 0x00	; 0
     c76:	0e 94 bc 00 	call	0x178	; 0x178 <DIO_Write>
      Ret=DIO_Write(MOTOR_OUT_1B_GPIO,MOTOR_OUT_1B_BIT,HIGH);
     c7a:	83 e0       	ldi	r24, 0x03	; 3
     c7c:	68 e0       	ldi	r22, 0x08	; 8
     c7e:	4f ef       	ldi	r20, 0xFF	; 255
     c80:	0e 94 bc 00 	call	0x178	; 0x178 <DIO_Write>
  		Ret=DIO_Write(MOTOR_OUT_2A_GPIO,MOTOR_OUT_2A_BIT,HIGH);
     c84:	83 e0       	ldi	r24, 0x03	; 3
     c86:	60 e4       	ldi	r22, 0x40	; 64
     c88:	4f ef       	ldi	r20, 0xFF	; 255
     c8a:	0e 94 bc 00 	call	0x178	; 0x178 <DIO_Write>
  		Ret=DIO_Write(MOTOR_OUT_2B_GPIO,MOTOR_OUT_2B_BIT,LOW);
     c8e:	83 e0       	ldi	r24, 0x03	; 3
     c90:	60 e8       	ldi	r22, 0x80	; 128
     c92:	40 e0       	ldi	r20, 0x00	; 0
     c94:	0e 94 bc 00 	call	0x178	; 0x178 <DIO_Write>

  		break;	}
     c98:	08 95       	ret
  	case MOTOR_STOP:
  	{
  			Ret=DIO_Write(MOTOR_OUT_1A_GPIO,MOTOR_OUT_1A_BIT,LOW);
     c9a:	83 e0       	ldi	r24, 0x03	; 3
     c9c:	64 e0       	ldi	r22, 0x04	; 4
     c9e:	40 e0       	ldi	r20, 0x00	; 0
     ca0:	0e 94 bc 00 	call	0x178	; 0x178 <DIO_Write>
  			Ret=DIO_Write(MOTOR_OUT_2A_GPIO,MOTOR_OUT_2A_BIT,LOW);
     ca4:	83 e0       	ldi	r24, 0x03	; 3
     ca6:	60 e4       	ldi	r22, 0x40	; 64
     ca8:	40 e0       	ldi	r20, 0x00	; 0
     caa:	0e 94 bc 00 	call	0x178	; 0x178 <DIO_Write>

  			Ret=DIO_Write(MOTOR_OUT_1B_GPIO,MOTOR_OUT_1B_BIT,LOW);
     cae:	83 e0       	ldi	r24, 0x03	; 3
     cb0:	68 e0       	ldi	r22, 0x08	; 8
     cb2:	40 e0       	ldi	r20, 0x00	; 0
     cb4:	0e 94 bc 00 	call	0x178	; 0x178 <DIO_Write>
  			Ret=DIO_Write(MOTOR_OUT_2B_GPIO,MOTOR_OUT_2B_BIT,LOW);
     cb8:	83 e0       	ldi	r24, 0x03	; 3
     cba:	60 e8       	ldi	r22, 0x80	; 128
     cbc:	40 e0       	ldi	r20, 0x00	; 0
     cbe:	0e 94 bc 00 	call	0x178	; 0x178 <DIO_Write>

  		break;
     cc2:	08 95       	ret
    }
return Ret;
}

ERROR_STATUS Motor_Direction(uint8_t Motor_Number, uint8_t Motor_Direction)
{uint8_t Ret=0;
     cc4:	80 e0       	ldi	r24, 0x00	; 0
     cc6:	08 95       	ret
     cc8:	80 e0       	ldi	r24, 0x00	; 0
     cca:	08 95       	ret
     ccc:	80 e0       	ldi	r24, 0x00	; 0
     cce:	08 95       	ret
  			Ret=DIO_Write(MOTOR_OUT_2B_GPIO,MOTOR_OUT_2B_BIT,LOW);

  		break;
  	}
    default:
    Ret=E_NOK;
     cd0:	81 e0       	ldi	r24, 0x01	; 1



    }
return Ret;
}
     cd2:	08 95       	ret

00000cd4 <Motor_Start>:


ERROR_STATUS Motor_Start(uint8_t Motor_Number, uint8_t Mot_Speed)
{
  uint8_t Ret=0;
switch (Motor_Number) {
     cd4:	82 30       	cpi	r24, 0x02	; 2
     cd6:	69 f0       	breq	.+26     	; 0xcf2 <Motor_Start+0x1e>
     cd8:	83 30       	cpi	r24, 0x03	; 3
     cda:	a9 f0       	breq	.+42     	; 0xd06 <Motor_Start+0x32>
     cdc:	81 30       	cpi	r24, 0x01	; 1
     cde:	f1 f4       	brne	.+60     	; 0xd1c <Motor_Start+0x48>
  case MOTOR_1:
  {gsv_is_Started=MOTOR_1;
     ce0:	80 93 a6 00 	sts	0x00A6, r24
    Ret=Pwm_Start(PWM_CH1A,Mot_Speed,30);
     ce4:	2e e1       	ldi	r18, 0x1E	; 30
     ce6:	30 e0       	ldi	r19, 0x00	; 0
     ce8:	40 e0       	ldi	r20, 0x00	; 0
     cea:	50 e0       	ldi	r21, 0x00	; 0
     cec:	0e 94 04 07 	call	0xe08	; 0xe08 <Pwm_Start>
    break;
     cf0:	08 95       	ret
  }
  case MOTOR_2:
  {
    gsv_is_Started=MOTOR_2;
     cf2:	82 e0       	ldi	r24, 0x02	; 2
     cf4:	80 93 a6 00 	sts	0x00A6, r24
    Ret=Pwm_Start(PWM_CH1B,Mot_Speed,30);
     cf8:	2e e1       	ldi	r18, 0x1E	; 30
     cfa:	30 e0       	ldi	r19, 0x00	; 0
     cfc:	40 e0       	ldi	r20, 0x00	; 0
     cfe:	50 e0       	ldi	r21, 0x00	; 0
     d00:	0e 94 04 07 	call	0xe08	; 0xe08 <Pwm_Start>
    break;
     d04:	08 95       	ret
  }
  case ( MOTOR_1 | MOTOR_2 ) :
  {
    gsv_is_Started=MOTOR_1 | MOTOR_2;
     d06:	83 e0       	ldi	r24, 0x03	; 3
     d08:	80 93 a6 00 	sts	0x00A6, r24
    Ret=Pwm_Start(PWM_CH1B,Mot_Speed,30);
     d0c:	82 e0       	ldi	r24, 0x02	; 2
     d0e:	2e e1       	ldi	r18, 0x1E	; 30
     d10:	30 e0       	ldi	r19, 0x00	; 0
     d12:	40 e0       	ldi	r20, 0x00	; 0
     d14:	50 e0       	ldi	r21, 0x00	; 0
     d16:	0e 94 04 07 	call	0xe08	; 0xe08 <Pwm_Start>
    break;
     d1a:	08 95       	ret
  }
  default:
  Ret=E_NOK;
     d1c:	81 e0       	ldi	r24, 0x01	; 1
  break;
}


return Ret;
}
     d1e:	08 95       	ret

00000d20 <Motor_SpeedUpdate>:
ERROR_STATUS Motor_SpeedUpdate(uint8_t Motor_Number, uint8_t Speed)
{
  uint8_t Ret=0;

switch (Motor_Number) {
     d20:	82 30       	cpi	r24, 0x02	; 2
     d22:	79 f0       	breq	.+30     	; 0xd42 <Motor_SpeedUpdate+0x22>
     d24:	83 30       	cpi	r24, 0x03	; 3
     d26:	c1 f0       	breq	.+48     	; 0xd58 <Motor_SpeedUpdate+0x38>
     d28:	81 30       	cpi	r24, 0x01	; 1
     d2a:	11 f5       	brne	.+68     	; 0xd70 <Motor_SpeedUpdate+0x50>
  case MOTOR_1:
  { if(gsv_is_intialized == Motor_Number)
     d2c:	80 91 a5 00 	lds	r24, 0x00A5
     d30:	81 30       	cpi	r24, 0x01	; 1
     d32:	01 f5       	brne	.+64     	; 0xd74 <Motor_SpeedUpdate+0x54>
    Ret=Pwm_Start(PWM_CH1A,Speed,30);
     d34:	2e e1       	ldi	r18, 0x1E	; 30
     d36:	30 e0       	ldi	r19, 0x00	; 0
     d38:	40 e0       	ldi	r20, 0x00	; 0
     d3a:	50 e0       	ldi	r21, 0x00	; 0
     d3c:	0e 94 04 07 	call	0xe08	; 0xe08 <Pwm_Start>
     d40:	08 95       	ret
    else{Ret=E_NOK;}
    break;
  }
  case MOTOR_2:
  {
    if(gsv_is_intialized == Motor_Number)
     d42:	80 91 a5 00 	lds	r24, 0x00A5
     d46:	82 30       	cpi	r24, 0x02	; 2
     d48:	b9 f4       	brne	.+46     	; 0xd78 <Motor_SpeedUpdate+0x58>
      Ret=Pwm_Start(PWM_CH1B,Speed,30);
     d4a:	2e e1       	ldi	r18, 0x1E	; 30
     d4c:	30 e0       	ldi	r19, 0x00	; 0
     d4e:	40 e0       	ldi	r20, 0x00	; 0
     d50:	50 e0       	ldi	r21, 0x00	; 0
     d52:	0e 94 04 07 	call	0xe08	; 0xe08 <Pwm_Start>
     d56:	08 95       	ret
      else{Ret=E_NOK;}
    break;
  }
  case ( MOTOR_1 | MOTOR_2 ) :
  {
    if(gsv_is_intialized == Motor_Number)
     d58:	80 91 a5 00 	lds	r24, 0x00A5
     d5c:	83 30       	cpi	r24, 0x03	; 3
     d5e:	71 f4       	brne	.+28     	; 0xd7c <Motor_SpeedUpdate+0x5c>
        Ret=Pwm_Start(PWM_CH1B,Speed,30);
     d60:	82 e0       	ldi	r24, 0x02	; 2
     d62:	2e e1       	ldi	r18, 0x1E	; 30
     d64:	30 e0       	ldi	r19, 0x00	; 0
     d66:	40 e0       	ldi	r20, 0x00	; 0
     d68:	50 e0       	ldi	r21, 0x00	; 0
     d6a:	0e 94 04 07 	call	0xe08	; 0xe08 <Pwm_Start>
     d6e:	08 95       	ret
        else{Ret=E_NOK;}
    break;
  }
  default:
  Ret=E_NOK;
     d70:	81 e0       	ldi	r24, 0x01	; 1
     d72:	08 95       	ret

switch (Motor_Number) {
  case MOTOR_1:
  { if(gsv_is_intialized == Motor_Number)
    Ret=Pwm_Start(PWM_CH1A,Speed,30);
    else{Ret=E_NOK;}
     d74:	81 e0       	ldi	r24, 0x01	; 1
     d76:	08 95       	ret
  }
  case MOTOR_2:
  {
    if(gsv_is_intialized == Motor_Number)
      Ret=Pwm_Start(PWM_CH1B,Speed,30);
      else{Ret=E_NOK;}
     d78:	81 e0       	ldi	r24, 0x01	; 1
     d7a:	08 95       	ret
  }
  case ( MOTOR_1 | MOTOR_2 ) :
  {
    if(gsv_is_intialized == Motor_Number)
        Ret=Pwm_Start(PWM_CH1B,Speed,30);
        else{Ret=E_NOK;}
     d7c:	81 e0       	ldi	r24, 0x01	; 1
  Ret=E_NOK;
  break;
}

return Ret;
}
     d7e:	08 95       	ret

00000d80 <Motor_Stop>:

ERROR_STATUS Motor_Stop(uint8_t Motor_Number)
{
	uint8_t Ret=0;
	switch(Motor_Number)
     d80:	81 30       	cpi	r24, 0x01	; 1
     d82:	19 f0       	breq	.+6      	; 0xd8a <Motor_Stop+0xa>
     d84:	82 30       	cpi	r24, 0x02	; 2
     d86:	49 f4       	brne	.+18     	; 0xd9a <Motor_Stop+0x1a>
     d88:	04 c0       	rjmp	.+8      	; 0xd92 <Motor_Stop+0x12>
	{
		case MOTOR_1 :
		Ret=Pwm_Stop(PWM_CH1A);
     d8a:	81 e0       	ldi	r24, 0x01	; 1
     d8c:	0e 94 d5 08 	call	0x11aa	; 0x11aa <Pwm_Stop>
		break;
     d90:	08 95       	ret
		case MOTOR_2:
		Ret=Pwm_Stop(PWM_CH1B);
     d92:	82 e0       	ldi	r24, 0x02	; 2
     d94:	0e 94 d5 08 	call	0x11aa	; 0x11aa <Pwm_Stop>
		break;
     d98:	08 95       	ret
		default:
		Ret=E_NOK;
     d9a:	81 e0       	ldi	r24, 0x01	; 1
		break;
	}


	return Ret;
}
     d9c:	08 95       	ret

00000d9e <Motor_GetStatus>:

 ERROR_STATUS Motor_GetStatus(uint8_t Motor_Number, uint8_t* Mot_status)
 {
	 if(gsv_is_intialized == Motor_Number)
     d9e:	90 91 a5 00 	lds	r25, 0x00A5
     da2:	98 17       	cp	r25, r24
     da4:	21 f4       	brne	.+8      	; 0xdae <Motor_GetStatus+0x10>
		*Mot_status=1;
     da6:	81 e0       	ldi	r24, 0x01	; 1
     da8:	fb 01       	movw	r30, r22
     daa:	80 83       	st	Z, r24
     dac:	08 95       	ret
	 else
	 {
		*Mot_status=0;
     dae:	fb 01       	movw	r30, r22
     db0:	10 82       	st	Z, r1
	 }
	 
 }
     db2:	08 95       	ret

00000db4 <Pwm_Init>:
/*                                                                               */
/* Description: initialize the PWM configuration                                 */
/*********************************************************************************/

ERROR_STATUS Pwm_Init(Pwm_Cfg_s *Pwm_Cfg)
{uint8_t Ret=0;
     db4:	fc 01       	movw	r30, r24
	switch(Pwm_Cfg->Channel)
     db6:	80 81       	ld	r24, Z
     db8:	81 30       	cpi	r24, 0x01	; 1
     dba:	61 f0       	breq	.+24     	; 0xdd4 <Pwm_Init+0x20>
     dbc:	81 30       	cpi	r24, 0x01	; 1
     dbe:	28 f0       	brcs	.+10     	; 0xdca <Pwm_Init+0x16>
     dc0:	82 30       	cpi	r24, 0x02	; 2
     dc2:	81 f0       	breq	.+32     	; 0xde4 <Pwm_Init+0x30>
     dc4:	83 30       	cpi	r24, 0x03	; 3
     dc6:	d9 f4       	brne	.+54     	; 0xdfe <Pwm_Init+0x4a>
     dc8:	15 c0       	rjmp	.+42     	; 0xdf4 <Pwm_Init+0x40>
		{
			case PWM_CH0:
			TCCR0|=T0_PWM_FAST |T0_NON_INVERTING;
     dca:	83 b7       	in	r24, 0x33	; 51
     dcc:	88 66       	ori	r24, 0x68	; 104
     dce:	83 bf       	out	0x33, r24	; 51
			Ret=E_OK;
     dd0:	80 e0       	ldi	r24, 0x00	; 0
			break;
     dd2:	16 c0       	rjmp	.+44     	; 0xe00 <Pwm_Init+0x4c>

			case PWM_CH1A:
			TCCR1 |= T1_PWM_Phase_8 | T1_OC1A_OC1B|0x0020;
     dd4:	8e b5       	in	r24, 0x2e	; 46
     dd6:	9f b5       	in	r25, 0x2f	; 47
     dd8:	80 62       	ori	r24, 0x20	; 32
     dda:	91 6a       	ori	r25, 0xA1	; 161
     ddc:	9f bd       	out	0x2f, r25	; 47
     dde:	8e bd       	out	0x2e, r24	; 46
			Ret=E_OK;
     de0:	80 e0       	ldi	r24, 0x00	; 0
			break;
     de2:	0e c0       	rjmp	.+28     	; 0xe00 <Pwm_Init+0x4c>

			case PWM_CH1B:
			TCCR1 |= T1_PWM_Phase_8 | T1_OC1A_OC1B;
     de4:	8e b5       	in	r24, 0x2e	; 46
     de6:	9f b5       	in	r25, 0x2f	; 47
     de8:	80 62       	ori	r24, 0x20	; 32
     dea:	91 6a       	ori	r25, 0xA1	; 161
     dec:	9f bd       	out	0x2f, r25	; 47
     dee:	8e bd       	out	0x2e, r24	; 46
			Ret=E_OK;
     df0:	80 e0       	ldi	r24, 0x00	; 0
			break;
     df2:	06 c0       	rjmp	.+12     	; 0xe00 <Pwm_Init+0x4c>


			case PWM_CH2:
			TCCR2 |=T2_PWM_FAST |T2_NON_INVERTING;
     df4:	85 b5       	in	r24, 0x25	; 37
     df6:	88 66       	ori	r24, 0x68	; 104
     df8:	85 bd       	out	0x25, r24	; 37
			Ret=E_OK;
     dfa:	80 e0       	ldi	r24, 0x00	; 0
			break;
     dfc:	01 c0       	rjmp	.+2      	; 0xe00 <Pwm_Init+0x4c>
			default:
			Ret=E_NOK;
     dfe:	81 e0       	ldi	r24, 0x01	; 1
			break;
		}
	sgl_Prescaler=Pwm_Cfg->Prescaler;
     e00:	91 81       	ldd	r25, Z+1	; 0x01
     e02:	90 93 a7 00 	sts	0x00A7, r25
	u32g_T1_Prescaler=en_prescal;
	OCR1A =u16_outputCompareA;
	OCR1B =u16_outputCompareB;
	TCNT1=u16_initialValue;
	*/
}
     e06:	08 95       	ret

00000e08 <Pwm_Start>:
/*-------------------------------------------------------                        */
/*((all this calculations are for phase correct mode))                           */
/*all this calculation for F_CPU 16MHz                                           */
/*********************************************************************************/
ERROR_STATUS Pwm_Start(uint8_t Channel,uint8_t Duty,uint32_t Frequncy)
{uint8_t Ret=0;
     e08:	cf 92       	push	r12
     e0a:	df 92       	push	r13
     e0c:	ef 92       	push	r14
     e0e:	ff 92       	push	r15
     e10:	0f 93       	push	r16
     e12:	1f 93       	push	r17
     e14:	89 01       	movw	r16, r18
     e16:	9a 01       	movw	r18, r20
	float dutyReal;
uint32_t pwm_time_on = MAX_HOLD;

if(Frequncy <= 31372 && Frequncy > 3921 )
     e18:	0f 2e       	mov	r0, r31
     e1a:	fe ea       	ldi	r31, 0xAE	; 174
     e1c:	cf 2e       	mov	r12, r31
     e1e:	f0 ef       	ldi	r31, 0xF0	; 240
     e20:	df 2e       	mov	r13, r31
     e22:	ff ef       	ldi	r31, 0xFF	; 255
     e24:	ef 2e       	mov	r14, r31
     e26:	ff ef       	ldi	r31, 0xFF	; 255
     e28:	ff 2e       	mov	r15, r31
     e2a:	f0 2d       	mov	r31, r0
     e2c:	c0 0e       	add	r12, r16
     e2e:	d1 1e       	adc	r13, r17
     e30:	e2 1e       	adc	r14, r18
     e32:	f3 1e       	adc	r15, r19
     e34:	9b e3       	ldi	r25, 0x3B	; 59
     e36:	c9 16       	cp	r12, r25
     e38:	9b e6       	ldi	r25, 0x6B	; 107
     e3a:	d9 06       	cpc	r13, r25
     e3c:	90 e0       	ldi	r25, 0x00	; 0
     e3e:	e9 06       	cpc	r14, r25
     e40:	90 e0       	ldi	r25, 0x00	; 0
     e42:	f9 06       	cpc	r15, r25
     e44:	18 f4       	brcc	.+6      	; 0xe4c <Pwm_Start+0x44>
	sgl_Prescaler=PWM_PRESCALER_NO;
     e46:	10 92 a7 00 	sts	0x00A7, r1
     e4a:	a2 c0       	rjmp	.+324    	; 0xf90 <Pwm_Start+0x188>
else if(Frequncy <= 3921 && Frequncy > 980)
     e4c:	0f 2e       	mov	r0, r31
     e4e:	fb e2       	ldi	r31, 0x2B	; 43
     e50:	cf 2e       	mov	r12, r31
     e52:	fc ef       	ldi	r31, 0xFC	; 252
     e54:	df 2e       	mov	r13, r31
     e56:	ff ef       	ldi	r31, 0xFF	; 255
     e58:	ef 2e       	mov	r14, r31
     e5a:	ff ef       	ldi	r31, 0xFF	; 255
     e5c:	ff 2e       	mov	r15, r31
     e5e:	f0 2d       	mov	r31, r0
     e60:	c0 0e       	add	r12, r16
     e62:	d1 1e       	adc	r13, r17
     e64:	e2 1e       	adc	r14, r18
     e66:	f3 1e       	adc	r15, r19
     e68:	9d e7       	ldi	r25, 0x7D	; 125
     e6a:	c9 16       	cp	r12, r25
     e6c:	9b e0       	ldi	r25, 0x0B	; 11
     e6e:	d9 06       	cpc	r13, r25
     e70:	90 e0       	ldi	r25, 0x00	; 0
     e72:	e9 06       	cpc	r14, r25
     e74:	90 e0       	ldi	r25, 0x00	; 0
     e76:	f9 06       	cpc	r15, r25
     e78:	20 f4       	brcc	.+8      	; 0xe82 <Pwm_Start+0x7a>
	sgl_Prescaler=PWM_PRESCALER_8;
     e7a:	91 e0       	ldi	r25, 0x01	; 1
     e7c:	90 93 a7 00 	sts	0x00A7, r25
     e80:	a5 c0       	rjmp	.+330    	; 0xfcc <Pwm_Start+0x1c4>
else if(Frequncy <= 980 && Frequncy > 490)
     e82:	0f 2e       	mov	r0, r31
     e84:	f5 e1       	ldi	r31, 0x15	; 21
     e86:	cf 2e       	mov	r12, r31
     e88:	fe ef       	ldi	r31, 0xFE	; 254
     e8a:	df 2e       	mov	r13, r31
     e8c:	ff ef       	ldi	r31, 0xFF	; 255
     e8e:	ef 2e       	mov	r14, r31
     e90:	ff ef       	ldi	r31, 0xFF	; 255
     e92:	ff 2e       	mov	r15, r31
     e94:	f0 2d       	mov	r31, r0
     e96:	c0 0e       	add	r12, r16
     e98:	d1 1e       	adc	r13, r17
     e9a:	e2 1e       	adc	r14, r18
     e9c:	f3 1e       	adc	r15, r19
     e9e:	9a ee       	ldi	r25, 0xEA	; 234
     ea0:	c9 16       	cp	r12, r25
     ea2:	91 e0       	ldi	r25, 0x01	; 1
     ea4:	d9 06       	cpc	r13, r25
     ea6:	90 e0       	ldi	r25, 0x00	; 0
     ea8:	e9 06       	cpc	r14, r25
     eaa:	90 e0       	ldi	r25, 0x00	; 0
     eac:	f9 06       	cpc	r15, r25
     eae:	20 f4       	brcc	.+8      	; 0xeb8 <Pwm_Start+0xb0>
	sgl_Prescaler=PWM_PRESCALER_32;
     eb0:	92 e0       	ldi	r25, 0x02	; 2
     eb2:	90 93 a7 00 	sts	0x00A7, r25
     eb6:	a1 c0       	rjmp	.+322    	; 0xffa <Pwm_Start+0x1f2>
else if(Frequncy <= 490 && Frequncy > 245)
     eb8:	0f 2e       	mov	r0, r31
     eba:	fa e0       	ldi	r31, 0x0A	; 10
     ebc:	cf 2e       	mov	r12, r31
     ebe:	ff ef       	ldi	r31, 0xFF	; 255
     ec0:	df 2e       	mov	r13, r31
     ec2:	ff ef       	ldi	r31, 0xFF	; 255
     ec4:	ef 2e       	mov	r14, r31
     ec6:	ff ef       	ldi	r31, 0xFF	; 255
     ec8:	ff 2e       	mov	r15, r31
     eca:	f0 2d       	mov	r31, r0
     ecc:	c0 0e       	add	r12, r16
     ece:	d1 1e       	adc	r13, r17
     ed0:	e2 1e       	adc	r14, r18
     ed2:	f3 1e       	adc	r15, r19
     ed4:	95 ef       	ldi	r25, 0xF5	; 245
     ed6:	c9 16       	cp	r12, r25
     ed8:	d1 04       	cpc	r13, r1
     eda:	e1 04       	cpc	r14, r1
     edc:	f1 04       	cpc	r15, r1
     ede:	20 f4       	brcc	.+8      	; 0xee8 <Pwm_Start+0xe0>
	sgl_Prescaler=PWM_PRESCALER_64;
     ee0:	93 e0       	ldi	r25, 0x03	; 3
     ee2:	90 93 a7 00 	sts	0x00A7, r25
     ee6:	90 c0       	rjmp	.+288    	; 0x1008 <Pwm_Start+0x200>
else if(Frequncy <= 245 && Frequncy > 122)
     ee8:	0f 2e       	mov	r0, r31
     eea:	f5 e8       	ldi	r31, 0x85	; 133
     eec:	cf 2e       	mov	r12, r31
     eee:	ff ef       	ldi	r31, 0xFF	; 255
     ef0:	df 2e       	mov	r13, r31
     ef2:	ff ef       	ldi	r31, 0xFF	; 255
     ef4:	ef 2e       	mov	r14, r31
     ef6:	ff ef       	ldi	r31, 0xFF	; 255
     ef8:	ff 2e       	mov	r15, r31
     efa:	f0 2d       	mov	r31, r0
     efc:	c0 0e       	add	r12, r16
     efe:	d1 1e       	adc	r13, r17
     f00:	e2 1e       	adc	r14, r18
     f02:	f3 1e       	adc	r15, r19
     f04:	9b e7       	ldi	r25, 0x7B	; 123
     f06:	c9 16       	cp	r12, r25
     f08:	d1 04       	cpc	r13, r1
     f0a:	e1 04       	cpc	r14, r1
     f0c:	f1 04       	cpc	r15, r1
     f0e:	20 f4       	brcc	.+8      	; 0xf18 <Pwm_Start+0x110>
	sgl_Prescaler=PWM_PRESCALER_128;
     f10:	94 e0       	ldi	r25, 0x04	; 4
     f12:	90 93 a7 00 	sts	0x00A7, r25
     f16:	a5 c0       	rjmp	.+330    	; 0x1062 <Pwm_Start+0x25a>
else if(Frequncy <= 122 && Frequncy > 31)
     f18:	0f 2e       	mov	r0, r31
     f1a:	f0 ee       	ldi	r31, 0xE0	; 224
     f1c:	cf 2e       	mov	r12, r31
     f1e:	ff ef       	ldi	r31, 0xFF	; 255
     f20:	df 2e       	mov	r13, r31
     f22:	ff ef       	ldi	r31, 0xFF	; 255
     f24:	ef 2e       	mov	r14, r31
     f26:	ff ef       	ldi	r31, 0xFF	; 255
     f28:	ff 2e       	mov	r15, r31
     f2a:	f0 2d       	mov	r31, r0
     f2c:	c0 0e       	add	r12, r16
     f2e:	d1 1e       	adc	r13, r17
     f30:	e2 1e       	adc	r14, r18
     f32:	f3 1e       	adc	r15, r19
     f34:	9b e5       	ldi	r25, 0x5B	; 91
     f36:	c9 16       	cp	r12, r25
     f38:	d1 04       	cpc	r13, r1
     f3a:	e1 04       	cpc	r14, r1
     f3c:	f1 04       	cpc	r15, r1
     f3e:	20 f4       	brcc	.+8      	; 0xf48 <Pwm_Start+0x140>
	sgl_Prescaler=PWM_PRESCALER_256;
     f40:	95 e0       	ldi	r25, 0x05	; 5
     f42:	90 93 a7 00 	sts	0x00A7, r25
     f46:	77 c0       	rjmp	.+238    	; 0x1036 <Pwm_Start+0x22e>
else if(Frequncy <= 31 && Frequncy > 0)
     f48:	01 50       	subi	r16, 0x01	; 1
     f4a:	10 40       	sbci	r17, 0x00	; 0
     f4c:	20 40       	sbci	r18, 0x00	; 0
     f4e:	30 40       	sbci	r19, 0x00	; 0
     f50:	0f 31       	cpi	r16, 0x1F	; 31
     f52:	11 05       	cpc	r17, r1
     f54:	21 05       	cpc	r18, r1
     f56:	31 05       	cpc	r19, r1
     f58:	20 f4       	brcc	.+8      	; 0xf62 <Pwm_Start+0x15a>
	sgl_Prescaler=PWM_PRESCALER_1024;
     f5a:	96 e0       	ldi	r25, 0x06	; 6
     f5c:	90 93 a7 00 	sts	0x00A7, r25
     f60:	86 c0       	rjmp	.+268    	; 0x106e <Pwm_Start+0x266>
else{Ret=E_NOK;}
switch(sgl_Prescaler)
     f62:	90 91 a7 00 	lds	r25, 0x00A7
     f66:	93 30       	cpi	r25, 0x03	; 3
     f68:	09 f4       	brne	.+2      	; 0xf6c <Pwm_Start+0x164>
     f6a:	4e c0       	rjmp	.+156    	; 0x1008 <Pwm_Start+0x200>
     f6c:	94 30       	cpi	r25, 0x04	; 4
     f6e:	30 f4       	brcc	.+12     	; 0xf7c <Pwm_Start+0x174>
     f70:	91 30       	cpi	r25, 0x01	; 1
     f72:	61 f1       	breq	.+88     	; 0xfcc <Pwm_Start+0x1c4>
     f74:	92 30       	cpi	r25, 0x02	; 2
     f76:	08 f0       	brcs	.+2      	; 0xf7a <Pwm_Start+0x172>
     f78:	40 c0       	rjmp	.+128    	; 0xffa <Pwm_Start+0x1f2>
     f7a:	0a c0       	rjmp	.+20     	; 0xf90 <Pwm_Start+0x188>
     f7c:	95 30       	cpi	r25, 0x05	; 5
     f7e:	09 f4       	brne	.+2      	; 0xf82 <Pwm_Start+0x17a>
     f80:	5a c0       	rjmp	.+180    	; 0x1036 <Pwm_Start+0x22e>
     f82:	95 30       	cpi	r25, 0x05	; 5
     f84:	08 f4       	brcc	.+2      	; 0xf88 <Pwm_Start+0x180>
     f86:	6d c0       	rjmp	.+218    	; 0x1062 <Pwm_Start+0x25a>
     f88:	96 30       	cpi	r25, 0x06	; 6
     f8a:	09 f0       	breq	.+2      	; 0xf8e <Pwm_Start+0x186>
     f8c:	8d c0       	rjmp	.+282    	; 0x10a8 <Pwm_Start+0x2a0>
     f8e:	6f c0       	rjmp	.+222    	; 0x106e <Pwm_Start+0x266>
{
	case PWM_PRESCALER_NO:
	{
		switch(Channel)
     f90:	81 30       	cpi	r24, 0x01	; 1
     f92:	61 f0       	breq	.+24     	; 0xfac <Pwm_Start+0x1a4>
     f94:	81 30       	cpi	r24, 0x01	; 1
     f96:	30 f0       	brcs	.+12     	; 0xfa4 <Pwm_Start+0x19c>
     f98:	82 30       	cpi	r24, 0x02	; 2
     f9a:	71 f0       	breq	.+28     	; 0xfb8 <Pwm_Start+0x1b0>
     f9c:	83 30       	cpi	r24, 0x03	; 3
     f9e:	09 f0       	breq	.+2      	; 0xfa2 <Pwm_Start+0x19a>
     fa0:	83 c0       	rjmp	.+262    	; 0x10a8 <Pwm_Start+0x2a0>
     fa2:	10 c0       	rjmp	.+32     	; 0xfc4 <Pwm_Start+0x1bc>
		{
			case PWM_CH0:
			{
				TCCR0|=PWM_PRESCALER_NO_CONFIG;
     fa4:	83 b7       	in	r24, 0x33	; 51
     fa6:	81 60       	ori	r24, 0x01	; 1
     fa8:	83 bf       	out	0x33, r24	; 51
				Ret=E_OK;
				break;
     faa:	88 c0       	rjmp	.+272    	; 0x10bc <Pwm_Start+0x2b4>
			}
			case PWM_CH1A:
			{
			TCCR1|=PWM_PRESCALER_NO_CONFIG;
     fac:	8e b5       	in	r24, 0x2e	; 46
     fae:	9f b5       	in	r25, 0x2f	; 47
     fb0:	81 60       	ori	r24, 0x01	; 1
     fb2:	9f bd       	out	0x2f, r25	; 47
     fb4:	8e bd       	out	0x2e, r24	; 46
			Ret=E_OK;
			break;
     fb6:	98 c0       	rjmp	.+304    	; 0x10e8 <Pwm_Start+0x2e0>
			}			
			case PWM_CH1B:
			{	TCCR1|=PWM_PRESCALER_NO_CONFIG;
     fb8:	8e b5       	in	r24, 0x2e	; 46
     fba:	9f b5       	in	r25, 0x2f	; 47
     fbc:	81 60       	ori	r24, 0x01	; 1
     fbe:	9f bd       	out	0x2f, r25	; 47
     fc0:	8e bd       	out	0x2e, r24	; 46
				Ret=E_OK;
				break;
     fc2:	ad c0       	rjmp	.+346    	; 0x111e <Pwm_Start+0x316>
			}
			case PWM_CH2:
			{TCCR2|=PWM_PRESCALER_NO_CONFIG;
     fc4:	85 b5       	in	r24, 0x25	; 37
     fc6:	81 60       	ori	r24, 0x01	; 1
     fc8:	85 bd       	out	0x25, r24	; 37
				Ret=E_OK;
				break;
     fca:	c4 c0       	rjmp	.+392    	; 0x1154 <Pwm_Start+0x34c>
	}

	
	case PWM_PRESCALER_8:
	{
		switch(Channel)
     fcc:	83 30       	cpi	r24, 0x03	; 3
     fce:	18 f4       	brcc	.+6      	; 0xfd6 <Pwm_Start+0x1ce>
     fd0:	81 30       	cpi	r24, 0x01	; 1
     fd2:	48 f4       	brcc	.+18     	; 0xfe6 <Pwm_Start+0x1de>
     fd4:	04 c0       	rjmp	.+8      	; 0xfde <Pwm_Start+0x1d6>
     fd6:	83 30       	cpi	r24, 0x03	; 3
     fd8:	09 f0       	breq	.+2      	; 0xfdc <Pwm_Start+0x1d4>
     fda:	66 c0       	rjmp	.+204    	; 0x10a8 <Pwm_Start+0x2a0>
     fdc:	0a c0       	rjmp	.+20     	; 0xff2 <Pwm_Start+0x1ea>
		{
			case PWM_CH0:
			{
				TCCR0|=PWM_PRESCALER_8_CONFIG;
     fde:	83 b7       	in	r24, 0x33	; 51
     fe0:	82 60       	ori	r24, 0x02	; 2
     fe2:	83 bf       	out	0x33, r24	; 51
				Ret=E_OK;
				break;
     fe4:	6b c0       	rjmp	.+214    	; 0x10bc <Pwm_Start+0x2b4>
			}
			case PWM_CH1A:
			case PWM_CH1B:
			{	TCCR1|=PWM_PRESCALER_8_CONFIG;
     fe6:	2e b5       	in	r18, 0x2e	; 46
     fe8:	3f b5       	in	r19, 0x2f	; 47
     fea:	22 60       	ori	r18, 0x02	; 2
     fec:	3f bd       	out	0x2f, r19	; 47
     fee:	2e bd       	out	0x2e, r18	; 46
				Ret=E_OK;
				break;
     ff0:	5b c0       	rjmp	.+182    	; 0x10a8 <Pwm_Start+0x2a0>
			}
			case PWM_CH2:
			{TCCR2|=PWM_PRESCALER_8_CONFIG;
     ff2:	85 b5       	in	r24, 0x25	; 37
     ff4:	82 60       	ori	r24, 0x02	; 2
     ff6:	85 bd       	out	0x25, r24	; 37
			Ret=E_OK;	
				break;
     ff8:	ad c0       	rjmp	.+346    	; 0x1154 <Pwm_Start+0x34c>
		break;
	}
	
	case PWM_PRESCALER_32:
	{
		switch(Channel)
     ffa:	83 30       	cpi	r24, 0x03	; 3
     ffc:	09 f0       	breq	.+2      	; 0x1000 <Pwm_Start+0x1f8>
     ffe:	54 c0       	rjmp	.+168    	; 0x10a8 <Pwm_Start+0x2a0>
		{
			case PWM_CH2:
			{TCCR2|=PWM_PRESCALER_32_CONFIG_T2;
    1000:	85 b5       	in	r24, 0x25	; 37
    1002:	83 60       	ori	r24, 0x03	; 3
    1004:	85 bd       	out	0x25, r24	; 37
				Ret=E_OK;
				break;
    1006:	a6 c0       	rjmp	.+332    	; 0x1154 <Pwm_Start+0x34c>
		break;
	}
	
	case PWM_PRESCALER_64:
	{
		switch(Channel)
    1008:	83 30       	cpi	r24, 0x03	; 3
    100a:	18 f4       	brcc	.+6      	; 0x1012 <Pwm_Start+0x20a>
    100c:	81 30       	cpi	r24, 0x01	; 1
    100e:	48 f4       	brcc	.+18     	; 0x1022 <Pwm_Start+0x21a>
    1010:	04 c0       	rjmp	.+8      	; 0x101a <Pwm_Start+0x212>
    1012:	83 30       	cpi	r24, 0x03	; 3
    1014:	09 f0       	breq	.+2      	; 0x1018 <Pwm_Start+0x210>
    1016:	48 c0       	rjmp	.+144    	; 0x10a8 <Pwm_Start+0x2a0>
    1018:	0a c0       	rjmp	.+20     	; 0x102e <Pwm_Start+0x226>
		{
			case PWM_CH0:
			{
				TCCR0|=PWM_PRESCALER_64_CONFIG;
    101a:	83 b7       	in	r24, 0x33	; 51
    101c:	83 60       	ori	r24, 0x03	; 3
    101e:	83 bf       	out	0x33, r24	; 51
				Ret=E_OK;
				break;
    1020:	4d c0       	rjmp	.+154    	; 0x10bc <Pwm_Start+0x2b4>
			}
			case PWM_CH1A:
			case PWM_CH1B:
			{	TCCR1|=PWM_PRESCALER_64_CONFIG;
    1022:	2e b5       	in	r18, 0x2e	; 46
    1024:	3f b5       	in	r19, 0x2f	; 47
    1026:	23 60       	ori	r18, 0x03	; 3
    1028:	3f bd       	out	0x2f, r19	; 47
    102a:	2e bd       	out	0x2e, r18	; 46
				Ret=E_OK;
				break;
    102c:	3d c0       	rjmp	.+122    	; 0x10a8 <Pwm_Start+0x2a0>
			}
			case PWM_CH2:
			{TCCR2|=PWM_PRESCALER_64_CONFIG_T2;
    102e:	85 b5       	in	r24, 0x25	; 37
    1030:	84 60       	ori	r24, 0x04	; 4
    1032:	85 bd       	out	0x25, r24	; 37
				Ret=E_OK;
				break;
    1034:	8f c0       	rjmp	.+286    	; 0x1154 <Pwm_Start+0x34c>
		break;
	}
	
	case PWM_PRESCALER_256:
	{
		switch(Channel)
    1036:	83 30       	cpi	r24, 0x03	; 3
    1038:	18 f4       	brcc	.+6      	; 0x1040 <Pwm_Start+0x238>
    103a:	81 30       	cpi	r24, 0x01	; 1
    103c:	40 f4       	brcc	.+16     	; 0x104e <Pwm_Start+0x246>
    103e:	03 c0       	rjmp	.+6      	; 0x1046 <Pwm_Start+0x23e>
    1040:	83 30       	cpi	r24, 0x03	; 3
    1042:	91 f5       	brne	.+100    	; 0x10a8 <Pwm_Start+0x2a0>
    1044:	0a c0       	rjmp	.+20     	; 0x105a <Pwm_Start+0x252>
		{
			case PWM_CH0:
			{
				TCCR0|=PWM_PRESCALER_64_CONFIG;
    1046:	83 b7       	in	r24, 0x33	; 51
    1048:	83 60       	ori	r24, 0x03	; 3
    104a:	83 bf       	out	0x33, r24	; 51
				Ret=E_OK;
				break;
    104c:	37 c0       	rjmp	.+110    	; 0x10bc <Pwm_Start+0x2b4>
			}
			case PWM_CH1A:
			case PWM_CH1B:
			{	TCCR1|=PWM_PRESCALER_64_CONFIG;
    104e:	2e b5       	in	r18, 0x2e	; 46
    1050:	3f b5       	in	r19, 0x2f	; 47
    1052:	23 60       	ori	r18, 0x03	; 3
    1054:	3f bd       	out	0x2f, r19	; 47
    1056:	2e bd       	out	0x2e, r18	; 46
				Ret=E_OK;
				break;
    1058:	27 c0       	rjmp	.+78     	; 0x10a8 <Pwm_Start+0x2a0>
			}
			case PWM_CH2:
			{TCCR2|=PWM_PRESCALER_64_CONFIG_T2;
    105a:	85 b5       	in	r24, 0x25	; 37
    105c:	84 60       	ori	r24, 0x04	; 4
    105e:	85 bd       	out	0x25, r24	; 37
				Ret=E_OK;
				break;
    1060:	79 c0       	rjmp	.+242    	; 0x1154 <Pwm_Start+0x34c>
		break;
	}
	
	case PWM_PRESCALER_128:
	{
		switch(Channel)
    1062:	83 30       	cpi	r24, 0x03	; 3
    1064:	09 f5       	brne	.+66     	; 0x10a8 <Pwm_Start+0x2a0>
		{
			case PWM_CH2:
			{TCCR2|=PWM_PRESCALER_128_CONFIG_T2;
    1066:	85 b5       	in	r24, 0x25	; 37
    1068:	85 60       	ori	r24, 0x05	; 5
    106a:	85 bd       	out	0x25, r24	; 37
				Ret=E_OK;
				break;
    106c:	73 c0       	rjmp	.+230    	; 0x1154 <Pwm_Start+0x34c>
		break;
	}
	
	case PWM_PRESCALER_1024:
	{
		switch(Channel)
    106e:	81 30       	cpi	r24, 0x01	; 1
    1070:	59 f0       	breq	.+22     	; 0x1088 <Pwm_Start+0x280>
    1072:	81 30       	cpi	r24, 0x01	; 1
    1074:	28 f0       	brcs	.+10     	; 0x1080 <Pwm_Start+0x278>
    1076:	82 30       	cpi	r24, 0x02	; 2
    1078:	69 f0       	breq	.+26     	; 0x1094 <Pwm_Start+0x28c>
    107a:	83 30       	cpi	r24, 0x03	; 3
    107c:	a9 f4       	brne	.+42     	; 0x10a8 <Pwm_Start+0x2a0>
    107e:	10 c0       	rjmp	.+32     	; 0x10a0 <Pwm_Start+0x298>
		{
			case PWM_CH0:
			{
				TCCR0|=PWM_PRESCALER_1024_CONFIG;
    1080:	83 b7       	in	r24, 0x33	; 51
    1082:	85 60       	ori	r24, 0x05	; 5
    1084:	83 bf       	out	0x33, r24	; 51
				Ret=E_OK;
				break;
    1086:	1a c0       	rjmp	.+52     	; 0x10bc <Pwm_Start+0x2b4>
			}
			case PWM_CH1A:
			{	TCCR1|=PWM_PRESCALER_NO_CONFIG;
    1088:	8e b5       	in	r24, 0x2e	; 46
    108a:	9f b5       	in	r25, 0x2f	; 47
    108c:	81 60       	ori	r24, 0x01	; 1
    108e:	9f bd       	out	0x2f, r25	; 47
    1090:	8e bd       	out	0x2e, r24	; 46
				Ret=E_OK;
				break;
    1092:	2a c0       	rjmp	.+84     	; 0x10e8 <Pwm_Start+0x2e0>
			}
			case PWM_CH1B:
			{	TCCR1|=PWM_PRESCALER_1024_CONFIG;
    1094:	8e b5       	in	r24, 0x2e	; 46
    1096:	9f b5       	in	r25, 0x2f	; 47
    1098:	85 60       	ori	r24, 0x05	; 5
    109a:	9f bd       	out	0x2f, r25	; 47
    109c:	8e bd       	out	0x2e, r24	; 46
				Ret=E_OK;
				break;
    109e:	3f c0       	rjmp	.+126    	; 0x111e <Pwm_Start+0x316>
			}
			case PWM_CH2:
			{TCCR2|=PWM_PRESCALER_1024_CONFIG_T2;
    10a0:	85 b5       	in	r24, 0x25	; 37
    10a2:	87 60       	ori	r24, 0x07	; 7
    10a4:	85 bd       	out	0x25, r24	; 37
				Ret=E_OK;
				break;
    10a6:	56 c0       	rjmp	.+172    	; 0x1154 <Pwm_Start+0x34c>

	
	
}

switch(Channel)
    10a8:	81 30       	cpi	r24, 0x01	; 1
    10aa:	f1 f0       	breq	.+60     	; 0x10e8 <Pwm_Start+0x2e0>
    10ac:	81 30       	cpi	r24, 0x01	; 1
    10ae:	30 f0       	brcs	.+12     	; 0x10bc <Pwm_Start+0x2b4>
    10b0:	82 30       	cpi	r24, 0x02	; 2
    10b2:	a9 f1       	breq	.+106    	; 0x111e <Pwm_Start+0x316>
    10b4:	83 30       	cpi	r24, 0x03	; 3
    10b6:	09 f0       	breq	.+2      	; 0x10ba <Pwm_Start+0x2b2>
    10b8:	63 c0       	rjmp	.+198    	; 0x1180 <Pwm_Start+0x378>
    10ba:	4c c0       	rjmp	.+152    	; 0x1154 <Pwm_Start+0x34c>
		{
			case PWM_CH0:{
			pwm_time_on=MAX_HOLD;
			dutyReal=((float)Duty/(float)FULL_SPEED);
    10bc:	70 e0       	ldi	r23, 0x00	; 0
    10be:	80 e0       	ldi	r24, 0x00	; 0
    10c0:	90 e0       	ldi	r25, 0x00	; 0
    10c2:	0e 94 cb 0c 	call	0x1996	; 0x1996 <__floatunsisf>
    10c6:	20 e0       	ldi	r18, 0x00	; 0
    10c8:	30 e0       	ldi	r19, 0x00	; 0
    10ca:	48 ec       	ldi	r20, 0xC8	; 200
    10cc:	52 e4       	ldi	r21, 0x42	; 66
    10ce:	0e 94 37 0c 	call	0x186e	; 0x186e <__divsf3>
			pwm_time_on=(float)pwm_time_on*dutyReal;
    10d2:	20 e0       	ldi	r18, 0x00	; 0
    10d4:	30 e0       	ldi	r19, 0x00	; 0
    10d6:	4f e7       	ldi	r20, 0x7F	; 127
    10d8:	53 e4       	ldi	r21, 0x43	; 67
    10da:	0e 94 59 0d 	call	0x1ab2	; 0x1ab2 <__mulsf3>
    10de:	0e 94 9f 0c 	call	0x193e	; 0x193e <__fixunssfsi>
			OCR0=pwm_time_on;
    10e2:	6c bf       	out	0x3c, r22	; 60
			Ret=E_OK;
    10e4:	80 e0       	ldi	r24, 0x00	; 0
			break;
    10e6:	4d c0       	rjmp	.+154    	; 0x1182 <Pwm_Start+0x37a>
			}			
			case PWM_CH1A:{
			pwm_time_on=MAX_HOLD;
			dutyReal=((float)Duty/(float)FULL_SPEED);
    10e8:	70 e0       	ldi	r23, 0x00	; 0
    10ea:	80 e0       	ldi	r24, 0x00	; 0
    10ec:	90 e0       	ldi	r25, 0x00	; 0
    10ee:	0e 94 cb 0c 	call	0x1996	; 0x1996 <__floatunsisf>
    10f2:	20 e0       	ldi	r18, 0x00	; 0
    10f4:	30 e0       	ldi	r19, 0x00	; 0
    10f6:	48 ec       	ldi	r20, 0xC8	; 200
    10f8:	52 e4       	ldi	r21, 0x42	; 66
    10fa:	0e 94 37 0c 	call	0x186e	; 0x186e <__divsf3>
			pwm_time_on=(float)pwm_time_on*dutyReal;
    10fe:	20 e0       	ldi	r18, 0x00	; 0
    1100:	30 e0       	ldi	r19, 0x00	; 0
    1102:	4f e7       	ldi	r20, 0x7F	; 127
    1104:	53 e4       	ldi	r21, 0x43	; 67
    1106:	0e 94 59 0d 	call	0x1ab2	; 0x1ab2 <__mulsf3>
    110a:	0e 94 9f 0c 	call	0x193e	; 0x193e <__fixunssfsi>
    110e:	dc 01       	movw	r26, r24
    1110:	cb 01       	movw	r24, r22
			OCR1A=pwm_time_on;
    1112:	9b bd       	out	0x2b, r25	; 43
    1114:	8a bd       	out	0x2a, r24	; 42
			OCR1B=pwm_time_on;
    1116:	99 bd       	out	0x29, r25	; 41
    1118:	88 bd       	out	0x28, r24	; 40
			Ret=E_OK;
    111a:	80 e0       	ldi	r24, 0x00	; 0
			break;
    111c:	32 c0       	rjmp	.+100    	; 0x1182 <Pwm_Start+0x37a>
			}			
			case PWM_CH1B:{
			pwm_time_on=MAX_HOLD;
			dutyReal=((float)Duty/(float)FULL_SPEED);
    111e:	70 e0       	ldi	r23, 0x00	; 0
    1120:	80 e0       	ldi	r24, 0x00	; 0
    1122:	90 e0       	ldi	r25, 0x00	; 0
    1124:	0e 94 cb 0c 	call	0x1996	; 0x1996 <__floatunsisf>
    1128:	20 e0       	ldi	r18, 0x00	; 0
    112a:	30 e0       	ldi	r19, 0x00	; 0
    112c:	48 ec       	ldi	r20, 0xC8	; 200
    112e:	52 e4       	ldi	r21, 0x42	; 66
    1130:	0e 94 37 0c 	call	0x186e	; 0x186e <__divsf3>
			pwm_time_on=(float)pwm_time_on*dutyReal;
    1134:	20 e0       	ldi	r18, 0x00	; 0
    1136:	30 e0       	ldi	r19, 0x00	; 0
    1138:	4f e7       	ldi	r20, 0x7F	; 127
    113a:	53 e4       	ldi	r21, 0x43	; 67
    113c:	0e 94 59 0d 	call	0x1ab2	; 0x1ab2 <__mulsf3>
    1140:	0e 94 9f 0c 	call	0x193e	; 0x193e <__fixunssfsi>
    1144:	dc 01       	movw	r26, r24
    1146:	cb 01       	movw	r24, r22
			OCR1A=pwm_time_on;
    1148:	9b bd       	out	0x2b, r25	; 43
    114a:	8a bd       	out	0x2a, r24	; 42
			OCR1B=pwm_time_on;
    114c:	99 bd       	out	0x29, r25	; 41
    114e:	88 bd       	out	0x28, r24	; 40
			Ret=E_OK;
    1150:	80 e0       	ldi	r24, 0x00	; 0
			break;
    1152:	17 c0       	rjmp	.+46     	; 0x1182 <Pwm_Start+0x37a>
			}
			case PWM_CH2:{
			pwm_time_on=MAX_HOLD;	
			dutyReal=((float)Duty/(float)FULL_SPEED);
    1154:	70 e0       	ldi	r23, 0x00	; 0
    1156:	80 e0       	ldi	r24, 0x00	; 0
    1158:	90 e0       	ldi	r25, 0x00	; 0
    115a:	0e 94 cb 0c 	call	0x1996	; 0x1996 <__floatunsisf>
    115e:	20 e0       	ldi	r18, 0x00	; 0
    1160:	30 e0       	ldi	r19, 0x00	; 0
    1162:	48 ec       	ldi	r20, 0xC8	; 200
    1164:	52 e4       	ldi	r21, 0x42	; 66
    1166:	0e 94 37 0c 	call	0x186e	; 0x186e <__divsf3>
			pwm_time_on=(float)pwm_time_on*dutyReal;
    116a:	20 e0       	ldi	r18, 0x00	; 0
    116c:	30 e0       	ldi	r19, 0x00	; 0
    116e:	4f e7       	ldi	r20, 0x7F	; 127
    1170:	53 e4       	ldi	r21, 0x43	; 67
    1172:	0e 94 59 0d 	call	0x1ab2	; 0x1ab2 <__mulsf3>
    1176:	0e 94 9f 0c 	call	0x193e	; 0x193e <__fixunssfsi>
			OCR2=pwm_time_on;
    117a:	63 bd       	out	0x23, r22	; 35
			Ret=E_OK;
    117c:	80 e0       	ldi	r24, 0x00	; 0
			}			
			break;
    117e:	01 c0       	rjmp	.+2      	; 0x1182 <Pwm_Start+0x37a>
			default:
			Ret=E_NOK;
    1180:	81 e0       	ldi	r24, 0x01	; 1
			break;
		}
sgl_is_started=1;
    1182:	91 e0       	ldi	r25, 0x01	; 1
    1184:	90 93 a8 00 	sts	0x00A8, r25
return Ret;
}
    1188:	1f 91       	pop	r17
    118a:	0f 91       	pop	r16
    118c:	ff 90       	pop	r15
    118e:	ef 90       	pop	r14
    1190:	df 90       	pop	r13
    1192:	cf 90       	pop	r12
    1194:	08 95       	ret

00001196 <Pwm_Update>:


ERROR_STATUS Pwm_Update(uint8_t Channel,uint8_t Duty,uint32_t Frequncy)
{
uint8_t Ret=0;
if (sgl_is_started == 1)
    1196:	90 91 a8 00 	lds	r25, 0x00A8
    119a:	91 30       	cpi	r25, 0x01	; 1
    119c:	21 f4       	brne	.+8      	; 0x11a6 <Pwm_Update+0x10>
{
	Pwm_Start( Channel,Duty,Frequncy);
    119e:	0e 94 04 07 	call	0xe08	; 0xe08 <Pwm_Start>
Ret=E_OK;
    11a2:	80 e0       	ldi	r24, 0x00	; 0
    11a4:	08 95       	ret
}else{Ret=E_NOK;}
    11a6:	81 e0       	ldi	r24, 0x01	; 1
	

return Ret;
}
    11a8:	08 95       	ret

000011aa <Pwm_Stop>:
/*********************************************************************************/

ERROR_STATUS Pwm_Stop(uint8_t Channel)
{
uint8_t Ret=0;
switch(Channel)
    11aa:	83 30       	cpi	r24, 0x03	; 3
    11ac:	18 f4       	brcc	.+6      	; 0x11b4 <Pwm_Stop+0xa>
    11ae:	81 30       	cpi	r24, 0x01	; 1
    11b0:	48 f4       	brcc	.+18     	; 0x11c4 <Pwm_Stop+0x1a>
    11b2:	03 c0       	rjmp	.+6      	; 0x11ba <Pwm_Stop+0x10>
    11b4:	83 30       	cpi	r24, 0x03	; 3
    11b6:	81 f4       	brne	.+32     	; 0x11d8 <Pwm_Stop+0x2e>
    11b8:	0a c0       	rjmp	.+20     	; 0x11ce <Pwm_Stop+0x24>
{
	case PWM_CH0:
	TCCR0 &=TIMER_STOPT02;
    11ba:	83 b7       	in	r24, 0x33	; 51
    11bc:	88 7f       	andi	r24, 0xF8	; 248
    11be:	83 bf       	out	0x33, r24	; 51
	Ret=E_OK;
    11c0:	80 e0       	ldi	r24, 0x00	; 0
	break;
    11c2:	08 95       	ret

	case PWM_CH1A:
	case PWM_CH1B:
	TCCR0 &=TIMER_STOPT1;
    11c4:	83 b7       	in	r24, 0x33	; 51
    11c6:	88 7f       	andi	r24, 0xF8	; 248
    11c8:	83 bf       	out	0x33, r24	; 51
	Ret=E_OK;
    11ca:	80 e0       	ldi	r24, 0x00	; 0
	break;
    11cc:	08 95       	ret


	case PWM_CH2:
	TCCR2 &=TIMER_STOPT02;
    11ce:	85 b5       	in	r24, 0x25	; 37
    11d0:	88 7f       	andi	r24, 0xF8	; 248
    11d2:	85 bd       	out	0x25, r24	; 37
	Ret=E_OK;
    11d4:	80 e0       	ldi	r24, 0x00	; 0
	break;
    11d6:	08 95       	ret
	default:
	Ret=E_NOK;
    11d8:	81 e0       	ldi	r24, 0x01	; 1
	break;
}

return Ret;
}
    11da:	08 95       	ret

000011dc <Steering_Init>:


ERROR_STATUS Steering_Init(void)
{
	uint8_t ret=0;
	ret=Motor_Init(MOTOR_1|MOTOR_2);
    11dc:	83 e0       	ldi	r24, 0x03	; 3
    11de:	0e 94 92 05 	call	0xb24	; 0xb24 <Motor_Init>
	return ret;
}
    11e2:	08 95       	ret

000011e4 <Steering_SteerCar>:


ERROR_STATUS Steering_SteerCar(uint8_t Steering_CarCmd, uint8_t speed)
{
    11e4:	cf 93       	push	r28
    11e6:	c6 2f       	mov	r28, r22
	uint8_t ret=0;
		switch(Steering_CarCmd)
    11e8:	82 30       	cpi	r24, 0x02	; 2
    11ea:	a9 f0       	breq	.+42     	; 0x1216 <Steering_SteerCar+0x32>
    11ec:	83 30       	cpi	r24, 0x03	; 3
    11ee:	20 f4       	brcc	.+8      	; 0x11f8 <Steering_SteerCar+0x14>
    11f0:	81 30       	cpi	r24, 0x01	; 1
    11f2:	09 f0       	breq	.+2      	; 0x11f6 <Steering_SteerCar+0x12>
    11f4:	49 c0       	rjmp	.+146    	; 0x1288 <Steering_SteerCar+0xa4>
    11f6:	06 c0       	rjmp	.+12     	; 0x1204 <Steering_SteerCar+0x20>
    11f8:	83 30       	cpi	r24, 0x03	; 3
    11fa:	59 f1       	breq	.+86     	; 0x1252 <Steering_SteerCar+0x6e>
    11fc:	84 30       	cpi	r24, 0x04	; 4
    11fe:	09 f0       	breq	.+2      	; 0x1202 <Steering_SteerCar+0x1e>
    1200:	43 c0       	rjmp	.+134    	; 0x1288 <Steering_SteerCar+0xa4>
    1202:	12 c0       	rjmp	.+36     	; 0x1228 <Steering_SteerCar+0x44>
	{
		case CAR_FORWARD:
			ret= Motor_Direction(MOTOR_1|MOTOR_2, CAR_FORWARD);
    1204:	83 e0       	ldi	r24, 0x03	; 3
    1206:	61 e0       	ldi	r22, 0x01	; 1
    1208:	0e 94 c1 05 	call	0xb82	; 0xb82 <Motor_Direction>
			ret=Motor_Start(MOTOR_1|MOTOR_2,speed);
    120c:	83 e0       	ldi	r24, 0x03	; 3
    120e:	6c 2f       	mov	r22, r28
    1210:	0e 94 6a 06 	call	0xcd4	; 0xcd4 <Motor_Start>
			break;
    1214:	3a c0       	rjmp	.+116    	; 0x128a <Steering_SteerCar+0xa6>
			case CAR_BACKWARD:
			ret= Motor_Direction(MOTOR_1|MOTOR_2,CAR_BACKWARD);
    1216:	83 e0       	ldi	r24, 0x03	; 3
    1218:	62 e0       	ldi	r22, 0x02	; 2
    121a:	0e 94 c1 05 	call	0xb82	; 0xb82 <Motor_Direction>
			ret=Motor_Start(MOTOR_1|MOTOR_2,speed);
    121e:	83 e0       	ldi	r24, 0x03	; 3
    1220:	6c 2f       	mov	r22, r28
    1222:	0e 94 6a 06 	call	0xcd4	; 0xcd4 <Motor_Start>
			break;
    1226:	31 c0       	rjmp	.+98     	; 0x128a <Steering_SteerCar+0xa6>
			case CAR_LEFT:
			ret= Motor_Direction(MOTOR_1, CAR_FORWARD);
    1228:	81 e0       	ldi	r24, 0x01	; 1
    122a:	61 e0       	ldi	r22, 0x01	; 1
    122c:	0e 94 c1 05 	call	0xb82	; 0xb82 <Motor_Direction>
			ret= Motor_Direction(MOTOR_2, CAR_BACKWARD);
    1230:	82 e0       	ldi	r24, 0x02	; 2
    1232:	62 e0       	ldi	r22, 0x02	; 2
    1234:	0e 94 c1 05 	call	0xb82	; 0xb82 <Motor_Direction>
			ret=Motor_Start(MOTOR_1|MOTOR_2,speed);
    1238:	83 e0       	ldi	r24, 0x03	; 3
    123a:	6c 2f       	mov	r22, r28
    123c:	0e 94 6a 06 	call	0xcd4	; 0xcd4 <Motor_Start>

/*************************************************************/
			ret= Motor_Direction(MOTOR_1, CAR_STOP);
    1240:	81 e0       	ldi	r24, 0x01	; 1
    1242:	60 e0       	ldi	r22, 0x00	; 0
    1244:	0e 94 c1 05 	call	0xb82	; 0xb82 <Motor_Direction>
			ret= Motor_Direction(MOTOR_2, CAR_STOP);
    1248:	82 e0       	ldi	r24, 0x02	; 2
    124a:	60 e0       	ldi	r22, 0x00	; 0
    124c:	0e 94 c1 05 	call	0xb82	; 0xb82 <Motor_Direction>
			break;
    1250:	1c c0       	rjmp	.+56     	; 0x128a <Steering_SteerCar+0xa6>
			case CAR_RIGHT:
			ret= Motor_Direction(MOTOR_1, CAR_BACKWARD);
    1252:	81 e0       	ldi	r24, 0x01	; 1
    1254:	62 e0       	ldi	r22, 0x02	; 2
    1256:	0e 94 c1 05 	call	0xb82	; 0xb82 <Motor_Direction>
			ret= Motor_Direction(MOTOR_2, CAR_FORWARD);
    125a:	82 e0       	ldi	r24, 0x02	; 2
    125c:	61 e0       	ldi	r22, 0x01	; 1
    125e:	0e 94 c1 05 	call	0xb82	; 0xb82 <Motor_Direction>
			ret=Motor_Start(MOTOR_1|MOTOR_2,speed);
    1262:	83 e0       	ldi	r24, 0x03	; 3
    1264:	6c 2f       	mov	r22, r28
    1266:	0e 94 6a 06 	call	0xcd4	; 0xcd4 <Motor_Start>
			timer2Start();
    126a:	0e 94 93 0a 	call	0x1526	; 0x1526 <timer2Start>
			timer2DelayMs(10);
    126e:	8a e0       	ldi	r24, 0x0A	; 10
    1270:	90 e0       	ldi	r25, 0x00	; 0
    1272:	0e 94 ee 0a 	call	0x15dc	; 0x15dc <timer2DelayMs>
/***********************************************************/
			ret= Motor_Direction(MOTOR_1, CAR_STOP);
    1276:	81 e0       	ldi	r24, 0x01	; 1
    1278:	60 e0       	ldi	r22, 0x00	; 0
    127a:	0e 94 c1 05 	call	0xb82	; 0xb82 <Motor_Direction>
			ret= Motor_Direction(MOTOR_2, CAR_STOP);
    127e:	82 e0       	ldi	r24, 0x02	; 2
    1280:	60 e0       	ldi	r22, 0x00	; 0
    1282:	0e 94 c1 05 	call	0xb82	; 0xb82 <Motor_Direction>
			break;
    1286:	01 c0       	rjmp	.+2      	; 0x128a <Steering_SteerCar+0xa6>
}


ERROR_STATUS Steering_SteerCar(uint8_t Steering_CarCmd, uint8_t speed)
{
	uint8_t ret=0;
    1288:	80 e0       	ldi	r24, 0x00	; 0
			break;
	}
	
	
return ret;
    128a:	cf 91       	pop	r28
    128c:	08 95       	ret

0000128e <timer0Set>:
                                          case TIMER_INTERRUPT_MODE:
                                           /*Enable Global INTERRUPT
                                              Enable Timer0 interrupt
                                              */
                                              G_interrupt_Enable();
                                              TIMSK |= T0_INTERRUPT_NORMAL;
    128e:	82 bf       	out	0x32, r24	; 50
                                              break;
    1290:	08 95       	ret

00001292 <timer0Read>:

                                          default :
                                          return E_NOK;
										  break;
    1292:	82 b7       	in	r24, 0x32	; 50
										}
    1294:	08 95       	ret

00001296 <timer0Start>:
                                    case COUNTER_FALLING_MODE:
                                    {
                                        TCCR0 |=T0_COUNTER_FALLING_MODE_CONFIG;
                                          switch (Timer_cfg->Timer_Polling_Or_Interrupt) {
                                              case TIMER_POLLING_MODE:
                                                {
    1296:	83 b7       	in	r24, 0x33	; 51
    1298:	88 7f       	andi	r24, 0xF8	; 248
    129a:	83 bf       	out	0x33, r24	; 51

    129c:	93 b7       	in	r25, 0x33	; 51
    129e:	80 91 af 00 	lds	r24, 0x00AF
    12a2:	89 2b       	or	r24, r25
    12a4:	83 bf       	out	0x33, r24	; 51
            /*Disable interrupts for T0 without effecting any other timer*/
    12a6:	08 95       	ret

000012a8 <timer0Stop>:
                                                  TIMSK &=T0_INTERRUPT_DISABLE;

                                                  break;
                                                }
                                                case TIMER_INTERRUPT_MODE:
                                                  {
    12a8:	83 b7       	in	r24, 0x33	; 51
    12aa:	88 7f       	andi	r24, 0xF8	; 248
    12ac:	83 bf       	out	0x33, r24	; 51
                                                    /*Enable Global INTERRUPT
                                                    Enable Timer0 interrupt
    12ae:	08 95       	ret

000012b0 <timer0Init>:

/************************************************************************/
/*		         TIMER FUNCTIONS' IMPLEMENTATION		        */
/************************************************************************/
 /**
 * Input: Pointer to a structure contains the information needed to initialize the timer.
    12b0:	ef 92       	push	r14
    12b2:	0f 93       	push	r16
 * Output:
    12b4:	44 23       	and	r20, r20
    12b6:	19 f4       	brne	.+6      	; 0x12be <timer0Init+0xe>
 * In/Out:
 * Return: The error status of the function.
 * Description: Initiates the module.
 *
    12b8:	0e 94 54 09 	call	0x12a8	; 0x12a8 <timer0Stop>
    12bc:	48 c0       	rjmp	.+144    	; 0x134e <timer0Init+0x9e>
 */
 static uint8_t prescaler_value=0;
 
ERROR_STATUS Timer_Init(Timer_cfg_s* Timer_cfg)
    12be:	93 b7       	in	r25, 0x33	; 51
    12c0:	89 2b       	or	r24, r25
    12c2:	84 2b       	or	r24, r20
    12c4:	83 bf       	out	0x33, r24	; 51
{
    12c6:	40 93 af 00 	sts	0x00AF, r20
prescaler_value=Timer_cfg->Timer_Prescaler;
    12ca:	22 bf       	out	0x32, r18	; 50
switch (Timer_cfg->Timer_CH_NO) {
    12cc:	60 31       	cpi	r22, 0x10	; 16
    12ce:	71 f0       	breq	.+28     	; 0x12ec <timer0Init+0x3c>
    12d0:	61 31       	cpi	r22, 0x11	; 17
    12d2:	18 f4       	brcc	.+6      	; 0x12da <timer0Init+0x2a>
    12d4:	66 23       	and	r22, r22
    12d6:	31 f0       	breq	.+12     	; 0x12e4 <timer0Init+0x34>
    12d8:	14 c0       	rjmp	.+40     	; 0x1302 <timer0Init+0x52>
    12da:	60 32       	cpi	r22, 0x20	; 32
    12dc:	59 f0       	breq	.+22     	; 0x12f4 <timer0Init+0x44>
    12de:	60 33       	cpi	r22, 0x30	; 48
    12e0:	81 f4       	brne	.+32     	; 0x1302 <timer0Init+0x52>
    12e2:	0c c0       	rjmp	.+24     	; 0x12fc <timer0Init+0x4c>
/*************************************************************************/
/*                             TIMER 0                                   */
/*************************************************************************/
    12e4:	83 b7       	in	r24, 0x33	; 51
    12e6:	8f 7c       	andi	r24, 0xCF	; 207
    12e8:	83 bf       	out	0x33, r24	; 51
    case TIMER_CH0:
    12ea:	0b c0       	rjmp	.+22     	; 0x1302 <timer0Init+0x52>
        {
  TCCR0 |=T0_NORMAL_MODE;
  
          switch (Timer_cfg->Timer_Mode) {
    12ec:	83 b7       	in	r24, 0x33	; 51
    12ee:	80 61       	ori	r24, 0x10	; 16
    12f0:	83 bf       	out	0x33, r24	; 51
          case TIMER_MODE:
    12f2:	07 c0       	rjmp	.+14     	; 0x1302 <timer0Init+0x52>
              {
                switch (Timer_cfg->Timer_Polling_Or_Interrupt)
				{
                    case TIMER_POLLING_MODE:
    12f4:	83 b7       	in	r24, 0x33	; 51
    12f6:	80 62       	ori	r24, 0x20	; 32
    12f8:	83 bf       	out	0x33, r24	; 51
                        {/*Disable interrupts for T0 without effecting any other timer*/
                         /*without Disabling Global interrupt*/
    12fa:	03 c0       	rjmp	.+6      	; 0x1302 <timer0Init+0x52>
                        TIMSK &=T0_INTERRUPT_DISABLE;
                            break;
                         }
                                  case TIMER_INTERRUPT_MODE:
    12fc:	83 b7       	in	r24, 0x33	; 51
    12fe:	80 63       	ori	r24, 0x30	; 48
    1300:	83 bf       	out	0x33, r24	; 51
                                  { /*Enable Global INTERRUPT
                                    Enable Timer0 interrupt
                                    */
                                    G_interrupt_Enable();
                                    TIMSK |= T0_INTERRUPT_NORMAL;
    1302:	0c bf       	out	0x3c, r16	; 60
                                    break;
    1304:	81 e0       	ldi	r24, 0x01	; 1
    1306:	e8 16       	cp	r14, r24
    1308:	69 f0       	breq	.+26     	; 0x1324 <timer0Init+0x74>
    130a:	e8 16       	cp	r14, r24
    130c:	20 f0       	brcs	.+8      	; 0x1316 <timer0Init+0x66>
    130e:	82 e0       	ldi	r24, 0x02	; 2
    1310:	e8 16       	cp	r14, r24
    1312:	e9 f4       	brne	.+58     	; 0x134e <timer0Init+0x9e>
    1314:	10 c0       	rjmp	.+32     	; 0x1336 <timer0Init+0x86>
                                  }
                                  default :
    1316:	10 92 ae 00 	sts	0x00AE, r1
                                  return E_NOK;
    131a:	0e 94 7d 02 	call	0x4fa	; 0x4fa <G_interrupt_Disable>
                          }
    131e:	89 b7       	in	r24, 0x39	; 57
    1320:	19 be       	out	0x39, r1	; 57

    1322:	15 c0       	rjmp	.+42     	; 0x134e <timer0Init+0x9e>
                          break;
                          }
/*************************************************************************/
    1324:	81 e0       	ldi	r24, 0x01	; 1
    1326:	80 93 ae 00 	sts	0x00AE, r24
/*                             TIMER 0 As a COUNTER_RISING_MODE          */
    132a:	0e 94 58 02 	call	0x4b0	; 0x4b0 <G_interrupt_Enable>
/*************************************************************************/
    132e:	89 b7       	in	r24, 0x39	; 57
    1330:	81 60       	ori	r24, 0x01	; 1
    1332:	89 bf       	out	0x39, r24	; 57

    1334:	0c c0       	rjmp	.+24     	; 0x134e <timer0Init+0x9e>
                          case COUNTER_RISING_MODE:
                            {
                                  TCCR0 |=T0_COUNTER_RISING_MODE_CONFIG;
    1336:	81 e0       	ldi	r24, 0x01	; 1
    1338:	80 93 ae 00 	sts	0x00AE, r24
                                    switch (Timer_cfg->Timer_Polling_Or_Interrupt) {
                                        case TIMER_POLLING_MODE:
    133c:	8f b7       	in	r24, 0x3f	; 63
    133e:	80 68       	ori	r24, 0x80	; 128
    1340:	8f bf       	out	0x3f, r24	; 63
                                          {
    1342:	89 b7       	in	r24, 0x39	; 57
    1344:	81 60       	ori	r24, 0x01	; 1
    1346:	89 bf       	out	0x39, r24	; 57
            /*Disable interrupts for T0 without effecting any other timer*/
    1348:	89 b7       	in	r24, 0x39	; 57
    134a:	82 60       	ori	r24, 0x02	; 2
    134c:	89 bf       	out	0x39, r24	; 57
                                            TIMSK &=T0_INTERRUPT_DISABLE;
                                            break;

                                          case TIMER_INTERRUPT_MODE:
                                           /*Enable Global INTERRUPT
                                              Enable Timer0 interrupt
    134e:	0f 91       	pop	r16
    1350:	ef 90       	pop	r14
    1352:	08 95       	ret

00001354 <timer0DelayMs>:
                                                  return E_NOK;
                                                }
                                      break;
                                      }
                                      default:
                                      return E_NOK;
    1354:	ac 01       	movw	r20, r24
    1356:	60 e0       	ldi	r22, 0x00	; 0
    1358:	70 e0       	ldi	r23, 0x00	; 0
    135a:	41 15       	cp	r20, r1
    135c:	51 05       	cpc	r21, r1
    135e:	61 05       	cpc	r22, r1
    1360:	71 05       	cpc	r23, r1
    1362:	89 f0       	breq	.+34     	; 0x1386 <timer0DelayMs+0x32>
    1364:	80 e0       	ldi	r24, 0x00	; 0
    1366:	90 e0       	ldi	r25, 0x00	; 0
    1368:	dc 01       	movw	r26, r24
                                    }
                                    return E_OK;
    136a:	08 b6       	in	r0, 0x38	; 56
    136c:	00 fe       	sbrs	r0, 0
    136e:	fd cf       	rjmp	.-6      	; 0x136a <timer0DelayMs+0x16>
                                  }
    1370:	28 b7       	in	r18, 0x38	; 56
    1372:	21 60       	ori	r18, 0x01	; 1
    1374:	28 bf       	out	0x38, r18	; 56
                                                  return E_NOK;
                                                }
                                      break;
                                      }
                                      default:
                                      return E_NOK;
    1376:	01 96       	adiw	r24, 0x01	; 1
    1378:	a1 1d       	adc	r26, r1
    137a:	b1 1d       	adc	r27, r1
    137c:	84 17       	cp	r24, r20
    137e:	95 07       	cpc	r25, r21
    1380:	a6 07       	cpc	r26, r22
    1382:	b7 07       	cpc	r27, r23
    1384:	90 f3       	brcs	.-28     	; 0x136a <timer0DelayMs+0x16>
    1386:	08 95       	ret

00001388 <timer0DelayUs>:
    case TIMER_CH1:
        {

    switch (Timer_cfg->Timer_Mode)
    {
      case TIMER_MODE:
    1388:	dc 01       	movw	r26, r24
    138a:	cb 01       	movw	r24, r22
      {
    138c:	00 97       	sbiw	r24, 0x00	; 0
    138e:	a1 05       	cpc	r26, r1
    1390:	b1 05       	cpc	r27, r1
    1392:	31 f0       	breq	.+12     	; 0x13a0 <timer0DelayUs+0x18>
        TCCR1 = T1_NORMAL_MODE_CONFIG;
              switch (Timer_cfg->Timer_Polling_Or_Interrupt) {
    1394:	80 ef       	ldi	r24, 0xF0	; 240
    1396:	0e 94 47 09 	call	0x128e	; 0x128e <timer0Set>
              case TIMER_POLLING_MODE:
    139a:	0e 94 49 09 	call	0x1292	; 0x1292 <timer0Read>
    139e:	fd cf       	rjmp	.-6      	; 0x139a <timer0DelayUs+0x12>
                {
                  /*Disable interrupts for T1 without effecting any other timer*/
                   /*without Disabling Global interrupt*/
    13a0:	88 b7       	in	r24, 0x38	; 56
    13a2:	81 60       	ori	r24, 0x01	; 1
    13a4:	88 bf       	out	0x38, r24	; 56
                  TIMSK &=T1_INTERRUPT_DISABLE;
    13a6:	08 95       	ret

000013a8 <timer0SwPWM>:

                break;
    13a8:	cf 92       	push	r12
    13aa:	df 92       	push	r13
    13ac:	ef 92       	push	r14
    13ae:	ff 92       	push	r15
    13b0:	cf 93       	push	r28
    13b2:	c8 2f       	mov	r28, r24
              }
              case TIMER_INTERRUPT_MODE:
    13b4:	8f ef       	ldi	r24, 0xFF	; 255
    13b6:	80 93 aa 00 	sts	0x00AA, r24
              {
                G_interrupt_Enable();
    13ba:	60 91 aa 00 	lds	r22, 0x00AA
    13be:	70 e0       	ldi	r23, 0x00	; 0
    13c0:	80 e0       	ldi	r24, 0x00	; 0
    13c2:	90 e0       	ldi	r25, 0x00	; 0
    13c4:	0e 94 cb 0c 	call	0x1996	; 0x1996 <__floatunsisf>
    13c8:	6b 01       	movw	r12, r22
    13ca:	7c 01       	movw	r14, r24
                  TIMSK &=T1_INTERRUPT_DISABLE;

                break;
              }
              case TIMER_INTERRUPT_MODE:
              {
    13cc:	6c 2f       	mov	r22, r28
    13ce:	70 e0       	ldi	r23, 0x00	; 0
    13d0:	80 e0       	ldi	r24, 0x00	; 0
    13d2:	90 e0       	ldi	r25, 0x00	; 0
    13d4:	0e 94 cb 0c 	call	0x1996	; 0x1996 <__floatunsisf>
    13d8:	20 e0       	ldi	r18, 0x00	; 0
    13da:	30 e0       	ldi	r19, 0x00	; 0
    13dc:	48 ec       	ldi	r20, 0xC8	; 200
    13de:	52 e4       	ldi	r21, 0x42	; 66
    13e0:	0e 94 37 0c 	call	0x186e	; 0x186e <__divsf3>
    13e4:	9b 01       	movw	r18, r22
    13e6:	ac 01       	movw	r20, r24
                G_interrupt_Enable();
    13e8:	c7 01       	movw	r24, r14
    13ea:	b6 01       	movw	r22, r12
    13ec:	0e 94 59 0d 	call	0x1ab2	; 0x1ab2 <__mulsf3>
    13f0:	0e 94 9f 0c 	call	0x193e	; 0x193e <__fixunssfsi>
    13f4:	60 93 aa 00 	sts	0x00AA, r22
                TIMSK |=T1_INTERRUPT_NORMAL;
    13f8:	80 91 ae 00 	lds	r24, 0x00AE
    13fc:	88 23       	and	r24, r24
    13fe:	19 f0       	breq	.+6      	; 0x1406 <timer0SwPWM+0x5e>
    1400:	81 30       	cpi	r24, 0x01	; 1
    1402:	29 f5       	brne	.+74     	; 0x144e <timer0SwPWM+0xa6>
    1404:	1f c0       	rjmp	.+62     	; 0x1444 <timer0SwPWM+0x9c>
                /*Enable Global INTERRUPT
                Enable Timer0 interrupt
                */
                break;
    1406:	0e 94 4b 09 	call	0x1296	; 0x1296 <timer0Start>
              }
    140a:	80 91 aa 00 	lds	r24, 0x00AA
    140e:	0e 94 47 09 	call	0x128e	; 0x128e <timer0Set>
              default :
              return E_NOK;
    1412:	08 b6       	in	r0, 0x38	; 56
    1414:	00 fe       	sbrs	r0, 0
    1416:	fd cf       	rjmp	.-6      	; 0x1412 <timer0SwPWM+0x6a>
            }
    1418:	88 b7       	in	r24, 0x38	; 56
    141a:	81 60       	ori	r24, 0x01	; 1
    141c:	88 bf       	out	0x38, r24	; 56
        break;
    141e:	85 b3       	in	r24, 0x15	; 21
    1420:	8f ef       	ldi	r24, 0xFF	; 255
    1422:	85 bb       	out	0x15, r24	; 21
      }
    1424:	0e 94 4b 09 	call	0x1296	; 0x1296 <timer0Start>
      case COUNTER_RISING_MODE:
    1428:	80 91 aa 00 	lds	r24, 0x00AA
    142c:	80 95       	com	r24
    142e:	0e 94 47 09 	call	0x128e	; 0x128e <timer0Set>
      {
            TCCR1|=T1_COUNTER_RISING_MODE_CONFIG;
    1432:	08 b6       	in	r0, 0x38	; 56
    1434:	00 fe       	sbrs	r0, 0
    1436:	fd cf       	rjmp	.-6      	; 0x1432 <timer0SwPWM+0x8a>

    1438:	88 b7       	in	r24, 0x38	; 56
    143a:	81 60       	ori	r24, 0x01	; 1
    143c:	88 bf       	out	0x38, r24	; 56
            switch (Timer_cfg->Timer_Polling_Or_Interrupt) {
    143e:	85 b3       	in	r24, 0x15	; 21
    1440:	15 ba       	out	0x15, r1	; 21
              case TIMER_POLLING_MODE:
              {
    1442:	05 c0       	rjmp	.+10     	; 0x144e <timer0SwPWM+0xa6>
                /*Disable interrupts for T1 without effecting any other timer*/
                 /*without Disabling Global interrupt*/
                TIMSK &=T1_INTERRUPT_DISABLE;

    1444:	0e 94 4b 09 	call	0x1296	; 0x1296 <timer0Start>
                break;
    1448:	80 91 aa 00 	lds	r24, 0x00AA
    144c:	8c bf       	out	0x3c, r24	; 60
              }
              case TIMER_INTERRUPT_MODE:
              {
                G_interrupt_Enable();
                TIMSK |=T1_INTERRUPT_NORMAL;
                /*Enable Global INTERRUPT
    144e:	cf 91       	pop	r28
    1450:	ff 90       	pop	r15
    1452:	ef 90       	pop	r14
    1454:	df 90       	pop	r13
    1456:	cf 90       	pop	r12
    1458:	08 95       	ret

0000145a <Timer_interrupt_COMP_routine>:
                break;
              }
              default:
              return E_NOK;
            }
        break;
    145a:	82 b3       	in	r24, 0x12	; 18
    145c:	80 95       	com	r24
    145e:	82 bb       	out	0x12, r24	; 18
      }
      case COUNTER_FALLING_MODE:
    1460:	08 95       	ret

00001462 <timer1Init>:
                /*Disable interrupts for T1 without effecting any other timer*/
                 /*without Disabling Global interrupt*/
                TIMSK &=T1_INTERRUPT_DISABLE;
                break;
              }
              case TIMER_INTERRUPT_MODE:
    1462:	af 92       	push	r10
    1464:	ef 92       	push	r14
    1466:	ff 92       	push	r15
    1468:	0f 93       	push	r16
    146a:	1f 93       	push	r17
    146c:	d9 01       	movw	r26, r18
    146e:	2a 2d       	mov	r18, r10
              {
    1470:	ee b5       	in	r30, 0x2e	; 46
    1472:	ff b5       	in	r31, 0x2f	; 47
    1474:	90 e0       	ldi	r25, 0x00	; 0
    1476:	86 2b       	or	r24, r22
    1478:	97 2b       	or	r25, r23
    147a:	8e 2b       	or	r24, r30
    147c:	9f 2b       	or	r25, r31
    147e:	9f bd       	out	0x2f, r25	; 47
    1480:	8e bd       	out	0x2e, r24	; 46
                G_interrupt_Enable();
    1482:	40 93 ab 00 	sts	0x00AB, r20
                TIMSK |=T1_INTERRUPT_NORMAL;
    1486:	1b bd       	out	0x2b, r17	; 43
    1488:	0a bd       	out	0x2a, r16	; 42
                /*Enable Global INTERRUPT
    148a:	f9 bc       	out	0x29, r15	; 41
    148c:	e8 bc       	out	0x28, r14	; 40
                Enable Timer0 interrupt
    148e:	bd bd       	out	0x2d, r27	; 45
    1490:	ac bd       	out	0x2c, r26	; 44
                */
    1492:	28 30       	cpi	r18, 0x08	; 8
    1494:	d1 f0       	breq	.+52     	; 0x14ca <timer1Init+0x68>
    1496:	29 30       	cpi	r18, 0x09	; 9
    1498:	28 f4       	brcc	.+10     	; 0x14a4 <timer1Init+0x42>
    149a:	aa 20       	and	r10, r10
    149c:	51 f0       	breq	.+20     	; 0x14b2 <timer1Init+0x50>
    149e:	24 30       	cpi	r18, 0x04	; 4
    14a0:	f9 f4       	brne	.+62     	; 0x14e0 <timer1Init+0x7e>
    14a2:	0b c0       	rjmp	.+22     	; 0x14ba <timer1Init+0x58>
    14a4:	20 32       	cpi	r18, 0x20	; 32
    14a6:	a9 f0       	breq	.+42     	; 0x14d2 <timer1Init+0x70>
    14a8:	2c 33       	cpi	r18, 0x3C	; 60
    14aa:	b9 f0       	breq	.+46     	; 0x14da <timer1Init+0x78>
    14ac:	20 31       	cpi	r18, 0x10	; 16
    14ae:	c1 f4       	brne	.+48     	; 0x14e0 <timer1Init+0x7e>
    14b0:	08 c0       	rjmp	.+16     	; 0x14c2 <timer1Init+0x60>

                break;
              }
              default :
    14b2:	89 b7       	in	r24, 0x39	; 57
    14b4:	83 7c       	andi	r24, 0xC3	; 195
    14b6:	89 bf       	out	0x39, r24	; 57
            }
      break;
      }
      default :
      return E_NOK;
    }
    14b8:	13 c0       	rjmp	.+38     	; 0x14e0 <timer1Init+0x7e>

  return E_OK;
  }
  /*************************************************************************/
    14ba:	89 b7       	in	r24, 0x39	; 57
    14bc:	84 60       	ori	r24, 0x04	; 4
    14be:	89 bf       	out	0x39, r24	; 57
  /*                             TIMER 2                                   */
    14c0:	0f c0       	rjmp	.+30     	; 0x14e0 <timer1Init+0x7e>
  /*************************************************************************/

  case TIMER_CH2:
  {
    14c2:	89 b7       	in	r24, 0x39	; 57
    14c4:	80 61       	ori	r24, 0x10	; 16
    14c6:	89 bf       	out	0x39, r24	; 57
TCCR2 |=T2_NORMAL_MODE_CONFIG;
    14c8:	0b c0       	rjmp	.+22     	; 0x14e0 <timer1Init+0x7e>
    switch (Timer_cfg->Timer_Mode) {
      case TIMER_MODE:
      {
            switch (Timer_cfg->Timer_Polling_Or_Interrupt) {
    14ca:	89 b7       	in	r24, 0x39	; 57
    14cc:	88 60       	ori	r24, 0x08	; 8
    14ce:	89 bf       	out	0x39, r24	; 57
              case TIMER_POLLING_MODE:
    14d0:	07 c0       	rjmp	.+14     	; 0x14e0 <timer1Init+0x7e>
              {
                  TIMSK &= T2_INTERRUPT_DISABLE;
                break;
              }
    14d2:	89 b7       	in	r24, 0x39	; 57
    14d4:	80 62       	ori	r24, 0x20	; 32
    14d6:	89 bf       	out	0x39, r24	; 57
              case TIMER_INTERRUPT_MODE:
    14d8:	03 c0       	rjmp	.+6      	; 0x14e0 <timer1Init+0x7e>
              {
                G_interrupt_Enable();
                  TIMSK|=T2_INTERRUPT_NORMAL;

    14da:	89 b7       	in	r24, 0x39	; 57
    14dc:	8c 63       	ori	r24, 0x3C	; 60
    14de:	89 bf       	out	0x39, r24	; 57
            }
        break;
      }
      case COUNTER_RISING_MODE:
      {
          ASSR |=0x08;
    14e0:	1f 91       	pop	r17
    14e2:	0f 91       	pop	r16
    14e4:	ff 90       	pop	r15
    14e6:	ef 90       	pop	r14
    14e8:	af 90       	pop	r10
    14ea:	08 95       	ret

000014ec <timer1Set>:
            switch (Timer_cfg->Timer_Polling_Or_Interrupt)
            {
              case TIMER_POLLING_MODE:
              {
                TIMSK &= T2_INTERRUPT_DISABLE;
    14ec:	9d bd       	out	0x2d, r25	; 45
    14ee:	8c bd       	out	0x2c, r24	; 44

    14f0:	08 95       	ret

000014f2 <timer1Read>:
              case TIMER_INTERRUPT_MODE:
              {
                G_interrupt_Enable();
                  TIMSK|=T2_INTERRUPT_NORMAL;
                break;
              }
    14f2:	8c b5       	in	r24, 0x2c	; 44
    14f4:	9d b5       	in	r25, 0x2d	; 45
              case COUNTER_FALLING_MODE:
    14f6:	08 95       	ret

000014f8 <timer1Start>:
                    switch (Timer_cfg->Timer_Polling_Or_Interrupt)
                    {
                      case TIMER_POLLING_MODE:
                      {
                        TIMSK &= T2_INTERRUPT_DISABLE;

    14f8:	2e b5       	in	r18, 0x2e	; 46
    14fa:	3f b5       	in	r19, 0x2f	; 47
    14fc:	80 91 ab 00 	lds	r24, 0x00AB
    1500:	90 e0       	ldi	r25, 0x00	; 0
    1502:	82 2b       	or	r24, r18
    1504:	93 2b       	or	r25, r19
    1506:	9f bd       	out	0x2f, r25	; 47
    1508:	8e bd       	out	0x2e, r24	; 46
                        break;
    150a:	08 95       	ret

0000150c <timer1Stop>:
                      {
                        G_interrupt_Enable();
                          TIMSK|=T2_INTERRUPT_NORMAL;
                        break;
                      }

    150c:	8e b5       	in	r24, 0x2e	; 46
    150e:	9f b5       	in	r25, 0x2f	; 47
    1510:	88 7f       	andi	r24, 0xF8	; 248
    1512:	9f bd       	out	0x2f, r25	; 47
    1514:	8e bd       	out	0x2e, r24	; 46
              default :
              return E_NOK;
    1516:	08 95       	ret

00001518 <timer1DelayMs>:
  default:
  return E_NOK;
}



    1518:	08 95       	ret

0000151a <timer1DelayUs>:
}
/*
 * Input:
 * Timer_CH_NO: The channel number of the timer needed to be started.
 * Timer_Count: The start value of the timer.
 * Output:
    151a:	08 95       	ret

0000151c <timer1SwPWM>:
 */
ERROR_STATUS Timer_Start(uint8_t Timer_CH_NO, uint16_t Timer_Count){
uint8_t Ret;
switch (Timer_CH_NO) {
case TIMER_CH0:{/***********************************************************************************************************************/
switch(prescaler_value){
    151c:	08 95       	ret

0000151e <timer2Set>:
  Ret=E_NOK;
  }
  break;
  }
  case TIMER_PRESCALER_8 :{
  if(Timer_Count < MAX1){
    151e:	84 bd       	out	0x24, r24	; 36
  TCCR1 |=TIMER1_PRESCALER_8_CONFIG;
    1520:	08 95       	ret

00001522 <timer2Read>:
  }else
  {
  Ret= E_NOK;
  }
  break;
  }
    1522:	84 b5       	in	r24, 0x24	; 36
  case TIMER_PRESCALER_64 :{
    1524:	08 95       	ret

00001526 <timer2Start>:
  TCCR1 |=TIMER1_PRESCALER_64_CONFIG;
  TCNT1 =MAX1 - Timer_Count;
  }else
  {
  Ret= E_NOK;
  }
    1526:	85 b5       	in	r24, 0x25	; 37
    1528:	88 7f       	andi	r24, 0xF8	; 248
    152a:	85 bd       	out	0x25, r24	; 37
  break;
    152c:	95 b5       	in	r25, 0x25	; 37
    152e:	80 91 ac 00 	lds	r24, 0x00AC
    1532:	89 2b       	or	r24, r25
    1534:	85 bd       	out	0x25, r24	; 37
  }
    1536:	08 95       	ret

00001538 <timer2Stop>:
  if(Timer_Count < MAX1){
  TCCR1 |=TIMER1_PRESCALER_256_CONFIG;
  TCNT1 =MAX1 - Timer_Count;
  }else
  {
  Ret= E_NOK;
    1538:	85 b5       	in	r24, 0x25	; 37
    153a:	88 7f       	andi	r24, 0xF8	; 248
    153c:	85 bd       	out	0x25, r24	; 37

  }
    153e:	08 95       	ret

00001540 <timer2Init>:
switch (Timer_CH_NO) {
case TIMER_CH0:{/***********************************************************************************************************************/
switch(prescaler_value){
case TIMER_PRESCALER_NO :{
if(Timer_Count < MAX0){
TCCR0 |=TIMER_PRESCALER_NO;
    1540:	cf 92       	push	r12
    1542:	0f 93       	push	r16
TCNT0 =MAX0 - Timer_Count;
    1544:	44 23       	and	r20, r20
    1546:	19 f4       	brne	.+6      	; 0x154e <timer2Init+0xe>
}else
{
Ret=E_NOK;
}
    1548:	0e 94 9c 0a 	call	0x1538	; 0x1538 <timer2Stop>
    154c:	44 c0       	rjmp	.+136    	; 0x15d6 <timer2Init+0x96>
break;
}
case TIMER_PRESCALER_8 :{
if(Timer_Count < MAX0){
    154e:	95 b5       	in	r25, 0x25	; 37
    1550:	89 2b       	or	r24, r25
    1552:	84 2b       	or	r24, r20
    1554:	85 bd       	out	0x25, r24	; 37
TCCR0 |=TIMER0_PRESCALER_8_CONFIG;
    1556:	40 93 ac 00 	sts	0x00AC, r20
TCNT0 =MAX0 - Timer_Count;
    155a:	24 bd       	out	0x24, r18	; 36
}else
    155c:	60 31       	cpi	r22, 0x10	; 16
    155e:	71 f0       	breq	.+28     	; 0x157c <timer2Init+0x3c>
    1560:	61 31       	cpi	r22, 0x11	; 17
    1562:	18 f4       	brcc	.+6      	; 0x156a <timer2Init+0x2a>
    1564:	66 23       	and	r22, r22
    1566:	31 f0       	breq	.+12     	; 0x1574 <timer2Init+0x34>
    1568:	14 c0       	rjmp	.+40     	; 0x1592 <timer2Init+0x52>
    156a:	60 32       	cpi	r22, 0x20	; 32
    156c:	59 f0       	breq	.+22     	; 0x1584 <timer2Init+0x44>
    156e:	60 33       	cpi	r22, 0x30	; 48
    1570:	81 f4       	brne	.+32     	; 0x1592 <timer2Init+0x52>
    1572:	0c c0       	rjmp	.+24     	; 0x158c <timer2Init+0x4c>
{
Ret=E_NOK;
}
    1574:	85 b5       	in	r24, 0x25	; 37
    1576:	8f 7c       	andi	r24, 0xCF	; 207
    1578:	85 bd       	out	0x25, r24	; 37
break;
    157a:	0b c0       	rjmp	.+22     	; 0x1592 <timer2Init+0x52>
}
case TIMER_PRESCALER_64 :{
if(Timer_Count < MAX0){
TCCR0 |=TIMER0_PRESCALER_64_CONFIG;
    157c:	85 b5       	in	r24, 0x25	; 37
    157e:	80 61       	ori	r24, 0x10	; 16
    1580:	85 bd       	out	0x25, r24	; 37
TCNT0 =MAX0 - Timer_Count;
    1582:	07 c0       	rjmp	.+14     	; 0x1592 <timer2Init+0x52>
}else
{
Ret=E_NOK;
}
    1584:	85 b5       	in	r24, 0x25	; 37
    1586:	80 62       	ori	r24, 0x20	; 32
    1588:	85 bd       	out	0x25, r24	; 37
break;
}
    158a:	03 c0       	rjmp	.+6      	; 0x1592 <timer2Init+0x52>
case TIMER_PRESCALER_256 :{
if(Timer_Count < MAX0){
TCCR0 |=TIMER0_PRESCALER_256_CONFIG;
TCNT0 =MAX0 - Timer_Count;
    158c:	85 b5       	in	r24, 0x25	; 37
    158e:	80 63       	ori	r24, 0x30	; 48
    1590:	85 bd       	out	0x25, r24	; 37
}else
{
Ret=E_NOK;
}
break;
    1592:	03 bd       	out	0x23, r16	; 35
}
    1594:	80 e4       	ldi	r24, 0x40	; 64
    1596:	c8 16       	cp	r12, r24
    1598:	51 f0       	breq	.+20     	; 0x15ae <timer2Init+0x6e>
    159a:	80 e8       	ldi	r24, 0x80	; 128
    159c:	c8 16       	cp	r12, r24
    159e:	81 f0       	breq	.+32     	; 0x15c0 <timer2Init+0x80>
    15a0:	cc 20       	and	r12, r12
    15a2:	c9 f4       	brne	.+50     	; 0x15d6 <timer2Init+0x96>
case TIMER_PRESCALER_1024 :{
if(Timer_Count < MAX0){
    15a4:	10 92 ad 00 	sts	0x00AD, r1
TCCR0 |=TIMER0_PRESCALER_1024_CONFIG;
    15a8:	89 b7       	in	r24, 0x39	; 57
    15aa:	19 be       	out	0x39, r1	; 57
TCNT0 =MAX0 - Timer_Count;
    15ac:	14 c0       	rjmp	.+40     	; 0x15d6 <timer2Init+0x96>
}else
{
Ret=E_NOK;
    15ae:	81 e0       	ldi	r24, 0x01	; 1
    15b0:	80 93 ad 00 	sts	0x00AD, r24
}
    15b4:	0e 94 58 02 	call	0x4b0	; 0x4b0 <G_interrupt_Enable>
break;
    15b8:	89 b7       	in	r24, 0x39	; 57
    15ba:	80 64       	ori	r24, 0x40	; 64
    15bc:	89 bf       	out	0x39, r24	; 57

    15be:	0b c0       	rjmp	.+22     	; 0x15d6 <timer2Init+0x96>
}
default :
Ret=E_NOK;
break;
    15c0:	81 e0       	ldi	r24, 0x01	; 1
    15c2:	80 93 ad 00 	sts	0x00AD, r24
}
    15c6:	0e 94 58 02 	call	0x4b0	; 0x4b0 <G_interrupt_Enable>

Ret=E_OK;
    15ca:	89 b7       	in	r24, 0x39	; 57
    15cc:	80 64       	ori	r24, 0x40	; 64
    15ce:	89 bf       	out	0x39, r24	; 57
break;
    15d0:	89 b7       	in	r24, 0x39	; 57
    15d2:	80 68       	ori	r24, 0x80	; 128
    15d4:	89 bf       	out	0x39, r24	; 57
  switch(prescaler_value){
  case TIMER_PRESCALER_NO :{
  if(Timer_Count < MAX1){
  TCCR1 |=TIMER_PRESCALER_NO;
  TCNT1 =MAX1 - Timer_Count;
  }else
    15d6:	0f 91       	pop	r16
    15d8:	cf 90       	pop	r12
    15da:	08 95       	ret

000015dc <timer2DelayMs>:
  
		switch(prescaler_value){
   
		  case TIMER_PRESCALER_NO :
			{
    
    15dc:	0f 93       	push	r16
    15de:	1f 93       	push	r17
    15e0:	cf 93       	push	r28
    15e2:	df 93       	push	r29
    15e4:	00 d0       	rcall	.+0      	; 0x15e6 <timer2DelayMs+0xa>
    15e6:	00 d0       	rcall	.+0      	; 0x15e8 <timer2DelayMs+0xc>
    15e8:	cd b7       	in	r28, 0x3d	; 61
    15ea:	de b7       	in	r29, 0x3e	; 62
    15ec:	8c 01       	movw	r16, r24
				if(Timer_Count < MAX0){
    15ee:	1a 82       	std	Y+2, r1	; 0x02
    15f0:	19 82       	std	Y+1, r1	; 0x01
     
    15f2:	1b 82       	std	Y+3, r1	; 0x03
    15f4:	1c 82       	std	Y+4, r1	; 0x04
			      TCCR2 |= TIMER_PRESCALER_NO;
    15f6:	80 91 ac 00 	lds	r24, 0x00AC
    15fa:	84 30       	cpi	r24, 0x04	; 4
    15fc:	f9 f0       	breq	.+62     	; 0x163c <timer2DelayMs+0x60>
    15fe:	85 30       	cpi	r24, 0x05	; 5
    1600:	38 f4       	brcc	.+14     	; 0x1610 <timer2DelayMs+0x34>
    1602:	82 30       	cpi	r24, 0x02	; 2
    1604:	89 f0       	breq	.+34     	; 0x1628 <timer2DelayMs+0x4c>
    1606:	83 30       	cpi	r24, 0x03	; 3
    1608:	a0 f4       	brcc	.+40     	; 0x1632 <timer2DelayMs+0x56>
    160a:	81 30       	cpi	r24, 0x01	; 1
    160c:	51 f5       	brne	.+84     	; 0x1662 <timer2DelayMs+0x86>
    160e:	07 c0       	rjmp	.+14     	; 0x161e <timer2DelayMs+0x42>
    1610:	86 30       	cpi	r24, 0x06	; 6
    1612:	f1 f0       	breq	.+60     	; 0x1650 <timer2DelayMs+0x74>
    1614:	86 30       	cpi	r24, 0x06	; 6
    1616:	b8 f0       	brcs	.+46     	; 0x1646 <timer2DelayMs+0x6a>
    1618:	87 30       	cpi	r24, 0x07	; 7
    161a:	19 f5       	brne	.+70     	; 0x1662 <timer2DelayMs+0x86>
    161c:	1e c0       	rjmp	.+60     	; 0x165a <timer2DelayMs+0x7e>
		      
				  TCNT2 = MAX2 - Timer_Count;
                            }
    161e:	8a e3       	ldi	r24, 0x3A	; 58
    1620:	8b 83       	std	Y+3, r24	; 0x03
                            else
    1622:	8a e0       	ldi	r24, 0x0A	; 10
    1624:	8c 83       	std	Y+4, r24	; 0x04
                             {
    1626:	1d c0       	rjmp	.+58     	; 0x1662 <timer2DelayMs+0x86>
                               Ret=E_NOK;
							 }
    1628:	88 e0       	ldi	r24, 0x08	; 8
    162a:	8b 83       	std	Y+3, r24	; 0x03
			break;
    162c:	8c e0       	ldi	r24, 0x0C	; 12
    162e:	8c 83       	std	Y+4, r24	; 0x04
			}
    1630:	18 c0       	rjmp	.+48     	; 0x1662 <timer2DelayMs+0x86>

case TIMER_PRESCALER_8 :
    1632:	82 e0       	ldi	r24, 0x02	; 2
    1634:	8b 83       	std	Y+3, r24	; 0x03
  {
    1636:	88 e0       	ldi	r24, 0x08	; 8
    1638:	8c 83       	std	Y+4, r24	; 0x04
          if(Timer_Count < MAX0)
    163a:	13 c0       	rjmp	.+38     	; 0x1662 <timer2DelayMs+0x86>
            {
           TCCR2 |=TIMER_PRESCALER_8;
    163c:	81 e0       	ldi	r24, 0x01	; 1
    163e:	8b 83       	std	Y+3, r24	; 0x03
           TCNT2 =MAX2 - Timer_Count;
    1640:	86 e0       	ldi	r24, 0x06	; 6
    1642:	8c 83       	std	Y+4, r24	; 0x04
            }
    1644:	0e c0       	rjmp	.+28     	; 0x1662 <timer2DelayMs+0x86>
            else
            {
    1646:	81 e0       	ldi	r24, 0x01	; 1
    1648:	8b 83       	std	Y+3, r24	; 0x03
             Ret=E_NOK;
    164a:	83 e8       	ldi	r24, 0x83	; 131
    164c:	8c 83       	std	Y+4, r24	; 0x04
		    }
    164e:	09 c0       	rjmp	.+18     	; 0x1662 <timer2DelayMs+0x86>
       break;
  }
    1650:	81 e0       	ldi	r24, 0x01	; 1
    1652:	8b 83       	std	Y+3, r24	; 0x03
  case TIMER_PRESCALER_32:
    1654:	82 ec       	ldi	r24, 0xC2	; 194
    1656:	8c 83       	std	Y+4, r24	; 0x04
  {
    1658:	04 c0       	rjmp	.+8      	; 0x1662 <timer2DelayMs+0x86>
    if(Timer_Count < MAX1)
         {
    165a:	81 e0       	ldi	r24, 0x01	; 1
    165c:	8b 83       	std	Y+3, r24	; 0x03
         TCCR2 |=TIMER_PRESCALER_32;
    165e:	80 ef       	ldi	r24, 0xF0	; 240
    1660:	8c 83       	std	Y+4, r24	; 0x04
         TCNT2 =MAX2 - Timer_Count;
        }
        else
    1662:	1a 82       	std	Y+2, r1	; 0x02
    1664:	19 82       	std	Y+1, r1	; 0x01
    1666:	2b 81       	ldd	r18, Y+3	; 0x03
    1668:	49 81       	ldd	r20, Y+1	; 0x01
    166a:	5a 81       	ldd	r21, Y+2	; 0x02
    166c:	30 e0       	ldi	r19, 0x00	; 0
    166e:	02 9f       	mul	r16, r18
    1670:	c0 01       	movw	r24, r0
    1672:	03 9f       	mul	r16, r19
    1674:	90 0d       	add	r25, r0
    1676:	12 9f       	mul	r17, r18
    1678:	90 0d       	add	r25, r0
    167a:	11 24       	eor	r1, r1
    167c:	48 17       	cp	r20, r24
    167e:	59 07       	cpc	r21, r25
    1680:	e0 f4       	brcc	.+56     	; 0x16ba <timer2DelayMs+0xde>
        {
    Ret=E_NOK;
    1682:	8c 81       	ldd	r24, Y+4	; 0x04
    1684:	0e 94 8f 0a 	call	0x151e	; 0x151e <timer2Set>
  }

    1688:	08 b6       	in	r0, 0x38	; 56
    168a:	06 fe       	sbrs	r0, 6
    168c:	fd cf       	rjmp	.-6      	; 0x1688 <timer2DelayMs+0xac>
    break;
    168e:	88 b7       	in	r24, 0x38	; 56
    1690:	80 64       	ori	r24, 0x40	; 64
    1692:	88 bf       	out	0x38, r24	; 56
    if(Timer_Count < MAX1)
         {
         TCCR2 |=TIMER_PRESCALER_32;
         TCNT2 =MAX2 - Timer_Count;
        }
        else
    1694:	89 81       	ldd	r24, Y+1	; 0x01
    1696:	9a 81       	ldd	r25, Y+2	; 0x02
    1698:	01 96       	adiw	r24, 0x01	; 1
    169a:	9a 83       	std	Y+2, r25	; 0x02
    169c:	89 83       	std	Y+1, r24	; 0x01
    169e:	2b 81       	ldd	r18, Y+3	; 0x03
    16a0:	49 81       	ldd	r20, Y+1	; 0x01
    16a2:	5a 81       	ldd	r21, Y+2	; 0x02
    16a4:	30 e0       	ldi	r19, 0x00	; 0
    16a6:	02 9f       	mul	r16, r18
    16a8:	c0 01       	movw	r24, r0
    16aa:	03 9f       	mul	r16, r19
    16ac:	90 0d       	add	r25, r0
    16ae:	12 9f       	mul	r17, r18
    16b0:	90 0d       	add	r25, r0
    16b2:	11 24       	eor	r1, r1
    16b4:	48 17       	cp	r20, r24
    16b6:	59 07       	cpc	r21, r25
    16b8:	20 f3       	brcs	.-56     	; 0x1682 <timer2DelayMs+0xa6>
  }

    break;
  }
  case TIMER_PRESCALER_64 :
  {
    16ba:	0f 90       	pop	r0
    16bc:	0f 90       	pop	r0
    16be:	0f 90       	pop	r0
    16c0:	0f 90       	pop	r0
    16c2:	df 91       	pop	r29
    16c4:	cf 91       	pop	r28
    16c6:	1f 91       	pop	r17
    16c8:	0f 91       	pop	r16
    16ca:	08 95       	ret

000016cc <timer2DelayUs>:
       if(Timer_Count < MAX2)
       {
       TCCR2 |=TIMER_PRESCALER_64;
       TCNT2 =MAX2 - Timer_Count;
    16cc:	cf 92       	push	r12
    16ce:	df 92       	push	r13
    16d0:	ef 92       	push	r14
    16d2:	ff 92       	push	r15
    16d4:	cf 93       	push	r28
    16d6:	df 93       	push	r29
    16d8:	00 d0       	rcall	.+0      	; 0x16da <timer2DelayUs+0xe>
    16da:	cd b7       	in	r28, 0x3d	; 61
    16dc:	de b7       	in	r29, 0x3e	; 62
    16de:	6b 01       	movw	r12, r22
    16e0:	7c 01       	movw	r14, r24
      }
    16e2:	1a 82       	std	Y+2, r1	; 0x02
    16e4:	19 82       	std	Y+1, r1	; 0x01
      else
    16e6:	1a 82       	std	Y+2, r1	; 0x02
    16e8:	19 82       	std	Y+1, r1	; 0x01
    16ea:	89 81       	ldd	r24, Y+1	; 0x01
    16ec:	9a 81       	ldd	r25, Y+2	; 0x02
    16ee:	a0 e0       	ldi	r26, 0x00	; 0
    16f0:	b0 e0       	ldi	r27, 0x00	; 0
    16f2:	8c 15       	cp	r24, r12
    16f4:	9d 05       	cpc	r25, r13
    16f6:	ae 05       	cpc	r26, r14
    16f8:	bf 05       	cpc	r27, r15
    16fa:	b8 f4       	brcc	.+46     	; 0x172a <timer2DelayUs+0x5e>
      {
  Ret=E_NOK;
    16fc:	8e ef       	ldi	r24, 0xFE	; 254
    16fe:	0e 94 8f 0a 	call	0x151e	; 0x151e <timer2Set>
  }
    1702:	08 b6       	in	r0, 0x38	; 56
    1704:	06 fe       	sbrs	r0, 6
    1706:	fd cf       	rjmp	.-6      	; 0x1702 <timer2DelayUs+0x36>
  break;
    1708:	88 b7       	in	r24, 0x38	; 56
    170a:	80 64       	ori	r24, 0x40	; 64
    170c:	88 bf       	out	0x38, r24	; 56
       if(Timer_Count < MAX2)
       {
       TCCR2 |=TIMER_PRESCALER_64;
       TCNT2 =MAX2 - Timer_Count;
      }
      else
    170e:	89 81       	ldd	r24, Y+1	; 0x01
    1710:	9a 81       	ldd	r25, Y+2	; 0x02
    1712:	01 96       	adiw	r24, 0x01	; 1
    1714:	9a 83       	std	Y+2, r25	; 0x02
    1716:	89 83       	std	Y+1, r24	; 0x01
    1718:	89 81       	ldd	r24, Y+1	; 0x01
    171a:	9a 81       	ldd	r25, Y+2	; 0x02
    171c:	a0 e0       	ldi	r26, 0x00	; 0
    171e:	b0 e0       	ldi	r27, 0x00	; 0
    1720:	8c 15       	cp	r24, r12
    1722:	9d 05       	cpc	r25, r13
    1724:	ae 05       	cpc	r26, r14
    1726:	bf 05       	cpc	r27, r15
    1728:	48 f3       	brcs	.-46     	; 0x16fc <timer2DelayUs+0x30>
  }
  break;
  }
  case TIMER_PRESCALER_128 :{
  if(Timer_Count < MAX2){
  TCCR2 |= TIMER_PRESCALER_128;
    172a:	0f 90       	pop	r0
    172c:	0f 90       	pop	r0
    172e:	df 91       	pop	r29
    1730:	cf 91       	pop	r28
    1732:	ff 90       	pop	r15
    1734:	ef 90       	pop	r14
    1736:	df 90       	pop	r13
    1738:	cf 90       	pop	r12
    173a:	08 95       	ret

0000173c <timer2SwPWM>:
  }else
  {
  Ret= E_NOK;
    }
  break;
  }
    173c:	cf 92       	push	r12
    173e:	df 92       	push	r13
    1740:	ef 92       	push	r14
    1742:	ff 92       	push	r15
    1744:	cf 93       	push	r28
    1746:	c8 2f       	mov	r28, r24
  case TIMER_PRESCALER_256 :{
  if(Timer_Count < MAX2){
  TCCR2 |= TIMER_PRESCALER_256;
    1748:	8f ef       	ldi	r24, 0xFF	; 255
    174a:	80 93 aa 00 	sts	0x00AA, r24
  TCNT2 =MAX2 - Timer_Count;
  }else
    174e:	60 91 aa 00 	lds	r22, 0x00AA
    1752:	70 e0       	ldi	r23, 0x00	; 0
    1754:	80 e0       	ldi	r24, 0x00	; 0
    1756:	90 e0       	ldi	r25, 0x00	; 0
    1758:	0e 94 cb 0c 	call	0x1996	; 0x1996 <__floatunsisf>
    175c:	6b 01       	movw	r12, r22
    175e:	7c 01       	movw	r14, r24
  break;
  }
  case TIMER_PRESCALER_256 :{
  if(Timer_Count < MAX2){
  TCCR2 |= TIMER_PRESCALER_256;
  TCNT2 =MAX2 - Timer_Count;
    1760:	6c 2f       	mov	r22, r28
    1762:	70 e0       	ldi	r23, 0x00	; 0
    1764:	80 e0       	ldi	r24, 0x00	; 0
    1766:	90 e0       	ldi	r25, 0x00	; 0
    1768:	0e 94 cb 0c 	call	0x1996	; 0x1996 <__floatunsisf>
    176c:	20 e0       	ldi	r18, 0x00	; 0
    176e:	30 e0       	ldi	r19, 0x00	; 0
    1770:	48 ec       	ldi	r20, 0xC8	; 200
    1772:	52 e4       	ldi	r21, 0x42	; 66
    1774:	0e 94 37 0c 	call	0x186e	; 0x186e <__divsf3>
    1778:	9b 01       	movw	r18, r22
    177a:	ac 01       	movw	r20, r24
  }else
    177c:	c7 01       	movw	r24, r14
    177e:	b6 01       	movw	r22, r12
    1780:	0e 94 59 0d 	call	0x1ab2	; 0x1ab2 <__mulsf3>
    1784:	0e 94 9f 0c 	call	0x193e	; 0x193e <__fixunssfsi>
    1788:	60 93 aa 00 	sts	0x00AA, r22
  {
    178c:	80 91 ad 00 	lds	r24, 0x00AD
    1790:	88 23       	and	r24, r24
    1792:	19 f0       	breq	.+6      	; 0x179a <timer2SwPWM+0x5e>
    1794:	81 30       	cpi	r24, 0x01	; 1
    1796:	29 f5       	brne	.+74     	; 0x17e2 <timer2SwPWM+0xa6>
    1798:	1f c0       	rjmp	.+62     	; 0x17d8 <timer2SwPWM+0x9c>
  Ret= E_NOK;

  }
  break;
    179a:	0e 94 93 0a 	call	0x1526	; 0x1526 <timer2Start>
  }
    179e:	80 91 aa 00 	lds	r24, 0x00AA
    17a2:	0e 94 8f 0a 	call	0x151e	; 0x151e <timer2Set>
  case TIMER_PRESCALER_1024 :{
  if(Timer_Count < MAX2){
    17a6:	08 b6       	in	r0, 0x38	; 56
    17a8:	02 fe       	sbrs	r0, 2
    17aa:	fd cf       	rjmp	.-6      	; 0x17a6 <timer2SwPWM+0x6a>
  TCCR2 |=TIMER_PRESCALER_1024;
    17ac:	88 b7       	in	r24, 0x38	; 56
    17ae:	84 60       	ori	r24, 0x04	; 4
    17b0:	88 bf       	out	0x38, r24	; 56
  TCNT2 =MAX2 - Timer_Count;
    17b2:	85 b3       	in	r24, 0x15	; 21
    17b4:	8f ef       	ldi	r24, 0xFF	; 255
    17b6:	85 bb       	out	0x15, r24	; 21
  }else
    17b8:	0e 94 93 0a 	call	0x1526	; 0x1526 <timer2Start>
  {
    17bc:	80 91 aa 00 	lds	r24, 0x00AA
    17c0:	80 95       	com	r24
    17c2:	0e 94 8f 0a 	call	0x151e	; 0x151e <timer2Set>
 Ret= E_NOK;

    17c6:	08 b6       	in	r0, 0x38	; 56
    17c8:	02 fe       	sbrs	r0, 2
    17ca:	fd cf       	rjmp	.-6      	; 0x17c6 <timer2SwPWM+0x8a>
  }
    17cc:	88 b7       	in	r24, 0x38	; 56
    17ce:	84 60       	ori	r24, 0x04	; 4
    17d0:	88 bf       	out	0x38, r24	; 56
  break;
    17d2:	85 b3       	in	r24, 0x15	; 21
    17d4:	15 ba       	out	0x15, r1	; 21
  }
  default :
    17d6:	05 c0       	rjmp	.+10     	; 0x17e2 <timer2SwPWM+0xa6>
  Ret= E_NOK;

  }
Ret=E_OK;
    17d8:	0e 94 93 0a 	call	0x1526	; 0x1526 <timer2Start>
break;
    17dc:	80 91 aa 00 	lds	r24, 0x00AA
    17e0:	83 bd       	out	0x23, r24	; 35
default:
Ret= E_NOK;
break;
}
return Ret;

    17e2:	cf 91       	pop	r28
    17e4:	ff 90       	pop	r15
    17e6:	ef 90       	pop	r14
    17e8:	df 90       	pop	r13
    17ea:	cf 90       	pop	r12
    17ec:	08 95       	ret

000017ee <Timer2_interrupt_COMP_routine>:
 * Input:
 *Timer_CH_NO: The channel number of the timer needed to be stopped.
 * Output:
 * In/Out:
 * Return: The error status of the function.
 * Description: This function stops the needed timer.
    17ee:	08 95       	ret

000017f0 <Timer2_interrupt_routine>:
 *
 */
ERROR_STATUS Timer_Stop(uint8_t Timer_CH_NO)
{uint8_t Ret;
switch (Timer_CH_NO) {
    17f0:	08 95       	ret

000017f2 <Us_Init>:
 *                                                                                                  *
 ***************************************************************************************************/

ERROR_STATUS Us_Init(void)
{uint8_t Ret;
Ret=DIO_init(&US_Configuration);
    17f2:	8a e8       	ldi	r24, 0x8A	; 138
    17f4:	90 e0       	ldi	r25, 0x00	; 0
    17f6:	0e 94 65 00 	call	0xca	; 0xca <DIO_init>
Ret=Icu_Init(&ICU_Configuration);
    17fa:	8c e6       	ldi	r24, 0x6C	; 108
    17fc:	90 e0       	ldi	r25, 0x00	; 0
    17fe:	0e 94 44 01 	call	0x288	; 0x288 <Icu_Init>
return Ret;
}
    1802:	08 95       	ret

00001804 <Us_Trigger>:
ERROR_STATUS Us_Trigger(void)
{uint8_t Ret=0;
Ret=DIO_Write(GPIOC,BIT4,HIGH);
    1804:	82 e0       	ldi	r24, 0x02	; 2
    1806:	90 e0       	ldi	r25, 0x00	; 0
    1808:	60 e1       	ldi	r22, 0x10	; 16
    180a:	70 e0       	ldi	r23, 0x00	; 0
    180c:	4f ef       	ldi	r20, 0xFF	; 255
    180e:	50 e0       	ldi	r21, 0x00	; 0
    1810:	0e 94 bc 00 	call	0x178	; 0x178 <DIO_Write>
timer2Start();
    1814:	0e 94 93 0a 	call	0x1526	; 0x1526 <timer2Start>
timer2DelayMs(1);
    1818:	81 e0       	ldi	r24, 0x01	; 1
    181a:	90 e0       	ldi	r25, 0x00	; 0
    181c:	0e 94 ee 0a 	call	0x15dc	; 0x15dc <timer2DelayMs>
Ret=DIO_Write(GPIOC,BIT4,LOW);
    1820:	82 e0       	ldi	r24, 0x02	; 2
    1822:	90 e0       	ldi	r25, 0x00	; 0
    1824:	60 e1       	ldi	r22, 0x10	; 16
    1826:	70 e0       	ldi	r23, 0x00	; 0
    1828:	40 e0       	ldi	r20, 0x00	; 0
    182a:	50 e0       	ldi	r21, 0x00	; 0
    182c:	0e 94 bc 00 	call	0x178	; 0x178 <DIO_Write>
return Ret;	
}
    1830:	08 95       	ret

00001832 <Us_GetDistance>:


ERROR_STATUS Us_GetDistance(uint16_t *Distance)
{uint8_t Ret=0;
    1832:	0f 93       	push	r16
    1834:	1f 93       	push	r17
    1836:	cf 93       	push	r28
    1838:	df 93       	push	r29
    183a:	00 d0       	rcall	.+0      	; 0x183c <Us_GetDistance+0xa>
    183c:	00 d0       	rcall	.+0      	; 0x183e <Us_GetDistance+0xc>
    183e:	cd b7       	in	r28, 0x3d	; 61
    1840:	de b7       	in	r29, 0x3e	; 62
    1842:	8c 01       	movw	r16, r24
	uint32_t u32l_Time;
	Ret=Icu_ReadTime(ICU_CH2,ICU_RISE_TO_FALL,&u32l_Time);
    1844:	82 e0       	ldi	r24, 0x02	; 2
    1846:	61 e0       	ldi	r22, 0x01	; 1
    1848:	ae 01       	movw	r20, r28
    184a:	4f 5f       	subi	r20, 0xFF	; 255
    184c:	5f 4f       	sbci	r21, 0xFF	; 255
    184e:	0e 94 75 01 	call	0x2ea	; 0x2ea <Icu_ReadTime>
	*Distance=u32l_Time;
    1852:	29 81       	ldd	r18, Y+1	; 0x01
    1854:	3a 81       	ldd	r19, Y+2	; 0x02
    1856:	f8 01       	movw	r30, r16
    1858:	31 83       	std	Z+1, r19	; 0x01
    185a:	20 83       	st	Z, r18
	return Ret;
}
    185c:	0f 90       	pop	r0
    185e:	0f 90       	pop	r0
    1860:	0f 90       	pop	r0
    1862:	0f 90       	pop	r0
    1864:	df 91       	pop	r29
    1866:	cf 91       	pop	r28
    1868:	1f 91       	pop	r17
    186a:	0f 91       	pop	r16
    186c:	08 95       	ret

0000186e <__divsf3>:
    186e:	0c d0       	rcall	.+24     	; 0x1888 <__divsf3x>
    1870:	e6 c0       	rjmp	.+460    	; 0x1a3e <__fp_round>
    1872:	de d0       	rcall	.+444    	; 0x1a30 <__fp_pscB>
    1874:	40 f0       	brcs	.+16     	; 0x1886 <__divsf3+0x18>
    1876:	d5 d0       	rcall	.+426    	; 0x1a22 <__fp_pscA>
    1878:	30 f0       	brcs	.+12     	; 0x1886 <__divsf3+0x18>
    187a:	21 f4       	brne	.+8      	; 0x1884 <__divsf3+0x16>
    187c:	5f 3f       	cpi	r21, 0xFF	; 255
    187e:	19 f0       	breq	.+6      	; 0x1886 <__divsf3+0x18>
    1880:	c7 c0       	rjmp	.+398    	; 0x1a10 <__fp_inf>
    1882:	51 11       	cpse	r21, r1
    1884:	10 c1       	rjmp	.+544    	; 0x1aa6 <__fp_szero>
    1886:	ca c0       	rjmp	.+404    	; 0x1a1c <__fp_nan>

00001888 <__divsf3x>:
    1888:	eb d0       	rcall	.+470    	; 0x1a60 <__fp_split3>
    188a:	98 f3       	brcs	.-26     	; 0x1872 <__divsf3+0x4>

0000188c <__divsf3_pse>:
    188c:	99 23       	and	r25, r25
    188e:	c9 f3       	breq	.-14     	; 0x1882 <__divsf3+0x14>
    1890:	55 23       	and	r21, r21
    1892:	b1 f3       	breq	.-20     	; 0x1880 <__divsf3+0x12>
    1894:	95 1b       	sub	r25, r21
    1896:	55 0b       	sbc	r21, r21
    1898:	bb 27       	eor	r27, r27
    189a:	aa 27       	eor	r26, r26
    189c:	62 17       	cp	r22, r18
    189e:	73 07       	cpc	r23, r19
    18a0:	84 07       	cpc	r24, r20
    18a2:	38 f0       	brcs	.+14     	; 0x18b2 <__divsf3_pse+0x26>
    18a4:	9f 5f       	subi	r25, 0xFF	; 255
    18a6:	5f 4f       	sbci	r21, 0xFF	; 255
    18a8:	22 0f       	add	r18, r18
    18aa:	33 1f       	adc	r19, r19
    18ac:	44 1f       	adc	r20, r20
    18ae:	aa 1f       	adc	r26, r26
    18b0:	a9 f3       	breq	.-22     	; 0x189c <__divsf3_pse+0x10>
    18b2:	33 d0       	rcall	.+102    	; 0x191a <__divsf3_pse+0x8e>
    18b4:	0e 2e       	mov	r0, r30
    18b6:	3a f0       	brmi	.+14     	; 0x18c6 <__divsf3_pse+0x3a>
    18b8:	e0 e8       	ldi	r30, 0x80	; 128
    18ba:	30 d0       	rcall	.+96     	; 0x191c <__divsf3_pse+0x90>
    18bc:	91 50       	subi	r25, 0x01	; 1
    18be:	50 40       	sbci	r21, 0x00	; 0
    18c0:	e6 95       	lsr	r30
    18c2:	00 1c       	adc	r0, r0
    18c4:	ca f7       	brpl	.-14     	; 0x18b8 <__divsf3_pse+0x2c>
    18c6:	29 d0       	rcall	.+82     	; 0x191a <__divsf3_pse+0x8e>
    18c8:	fe 2f       	mov	r31, r30
    18ca:	27 d0       	rcall	.+78     	; 0x191a <__divsf3_pse+0x8e>
    18cc:	66 0f       	add	r22, r22
    18ce:	77 1f       	adc	r23, r23
    18d0:	88 1f       	adc	r24, r24
    18d2:	bb 1f       	adc	r27, r27
    18d4:	26 17       	cp	r18, r22
    18d6:	37 07       	cpc	r19, r23
    18d8:	48 07       	cpc	r20, r24
    18da:	ab 07       	cpc	r26, r27
    18dc:	b0 e8       	ldi	r27, 0x80	; 128
    18de:	09 f0       	breq	.+2      	; 0x18e2 <__divsf3_pse+0x56>
    18e0:	bb 0b       	sbc	r27, r27
    18e2:	80 2d       	mov	r24, r0
    18e4:	bf 01       	movw	r22, r30
    18e6:	ff 27       	eor	r31, r31
    18e8:	93 58       	subi	r25, 0x83	; 131
    18ea:	5f 4f       	sbci	r21, 0xFF	; 255
    18ec:	2a f0       	brmi	.+10     	; 0x18f8 <__divsf3_pse+0x6c>
    18ee:	9e 3f       	cpi	r25, 0xFE	; 254
    18f0:	51 05       	cpc	r21, r1
    18f2:	68 f0       	brcs	.+26     	; 0x190e <__divsf3_pse+0x82>
    18f4:	8d c0       	rjmp	.+282    	; 0x1a10 <__fp_inf>
    18f6:	d7 c0       	rjmp	.+430    	; 0x1aa6 <__fp_szero>
    18f8:	5f 3f       	cpi	r21, 0xFF	; 255
    18fa:	ec f3       	brlt	.-6      	; 0x18f6 <__divsf3_pse+0x6a>
    18fc:	98 3e       	cpi	r25, 0xE8	; 232
    18fe:	dc f3       	brlt	.-10     	; 0x18f6 <__divsf3_pse+0x6a>
    1900:	86 95       	lsr	r24
    1902:	77 95       	ror	r23
    1904:	67 95       	ror	r22
    1906:	b7 95       	ror	r27
    1908:	f7 95       	ror	r31
    190a:	9f 5f       	subi	r25, 0xFF	; 255
    190c:	c9 f7       	brne	.-14     	; 0x1900 <__divsf3_pse+0x74>
    190e:	88 0f       	add	r24, r24
    1910:	91 1d       	adc	r25, r1
    1912:	96 95       	lsr	r25
    1914:	87 95       	ror	r24
    1916:	97 f9       	bld	r25, 7
    1918:	08 95       	ret
    191a:	e1 e0       	ldi	r30, 0x01	; 1
    191c:	66 0f       	add	r22, r22
    191e:	77 1f       	adc	r23, r23
    1920:	88 1f       	adc	r24, r24
    1922:	bb 1f       	adc	r27, r27
    1924:	62 17       	cp	r22, r18
    1926:	73 07       	cpc	r23, r19
    1928:	84 07       	cpc	r24, r20
    192a:	ba 07       	cpc	r27, r26
    192c:	20 f0       	brcs	.+8      	; 0x1936 <__divsf3_pse+0xaa>
    192e:	62 1b       	sub	r22, r18
    1930:	73 0b       	sbc	r23, r19
    1932:	84 0b       	sbc	r24, r20
    1934:	ba 0b       	sbc	r27, r26
    1936:	ee 1f       	adc	r30, r30
    1938:	88 f7       	brcc	.-30     	; 0x191c <__divsf3_pse+0x90>
    193a:	e0 95       	com	r30
    193c:	08 95       	ret

0000193e <__fixunssfsi>:
    193e:	98 d0       	rcall	.+304    	; 0x1a70 <__fp_splitA>
    1940:	88 f0       	brcs	.+34     	; 0x1964 <__fixunssfsi+0x26>
    1942:	9f 57       	subi	r25, 0x7F	; 127
    1944:	90 f0       	brcs	.+36     	; 0x196a <__fixunssfsi+0x2c>
    1946:	b9 2f       	mov	r27, r25
    1948:	99 27       	eor	r25, r25
    194a:	b7 51       	subi	r27, 0x17	; 23
    194c:	a0 f0       	brcs	.+40     	; 0x1976 <__fixunssfsi+0x38>
    194e:	d1 f0       	breq	.+52     	; 0x1984 <__fixunssfsi+0x46>
    1950:	66 0f       	add	r22, r22
    1952:	77 1f       	adc	r23, r23
    1954:	88 1f       	adc	r24, r24
    1956:	99 1f       	adc	r25, r25
    1958:	1a f0       	brmi	.+6      	; 0x1960 <__fixunssfsi+0x22>
    195a:	ba 95       	dec	r27
    195c:	c9 f7       	brne	.-14     	; 0x1950 <__fixunssfsi+0x12>
    195e:	12 c0       	rjmp	.+36     	; 0x1984 <__fixunssfsi+0x46>
    1960:	b1 30       	cpi	r27, 0x01	; 1
    1962:	81 f0       	breq	.+32     	; 0x1984 <__fixunssfsi+0x46>
    1964:	9f d0       	rcall	.+318    	; 0x1aa4 <__fp_zero>
    1966:	b1 e0       	ldi	r27, 0x01	; 1
    1968:	08 95       	ret
    196a:	9c c0       	rjmp	.+312    	; 0x1aa4 <__fp_zero>
    196c:	67 2f       	mov	r22, r23
    196e:	78 2f       	mov	r23, r24
    1970:	88 27       	eor	r24, r24
    1972:	b8 5f       	subi	r27, 0xF8	; 248
    1974:	39 f0       	breq	.+14     	; 0x1984 <__fixunssfsi+0x46>
    1976:	b9 3f       	cpi	r27, 0xF9	; 249
    1978:	cc f3       	brlt	.-14     	; 0x196c <__fixunssfsi+0x2e>
    197a:	86 95       	lsr	r24
    197c:	77 95       	ror	r23
    197e:	67 95       	ror	r22
    1980:	b3 95       	inc	r27
    1982:	d9 f7       	brne	.-10     	; 0x197a <__fixunssfsi+0x3c>
    1984:	3e f4       	brtc	.+14     	; 0x1994 <__fixunssfsi+0x56>
    1986:	90 95       	com	r25
    1988:	80 95       	com	r24
    198a:	70 95       	com	r23
    198c:	61 95       	neg	r22
    198e:	7f 4f       	sbci	r23, 0xFF	; 255
    1990:	8f 4f       	sbci	r24, 0xFF	; 255
    1992:	9f 4f       	sbci	r25, 0xFF	; 255
    1994:	08 95       	ret

00001996 <__floatunsisf>:
    1996:	e8 94       	clt
    1998:	09 c0       	rjmp	.+18     	; 0x19ac <__floatsisf+0x12>

0000199a <__floatsisf>:
    199a:	97 fb       	bst	r25, 7
    199c:	3e f4       	brtc	.+14     	; 0x19ac <__floatsisf+0x12>
    199e:	90 95       	com	r25
    19a0:	80 95       	com	r24
    19a2:	70 95       	com	r23
    19a4:	61 95       	neg	r22
    19a6:	7f 4f       	sbci	r23, 0xFF	; 255
    19a8:	8f 4f       	sbci	r24, 0xFF	; 255
    19aa:	9f 4f       	sbci	r25, 0xFF	; 255
    19ac:	99 23       	and	r25, r25
    19ae:	a9 f0       	breq	.+42     	; 0x19da <__floatsisf+0x40>
    19b0:	f9 2f       	mov	r31, r25
    19b2:	96 e9       	ldi	r25, 0x96	; 150
    19b4:	bb 27       	eor	r27, r27
    19b6:	93 95       	inc	r25
    19b8:	f6 95       	lsr	r31
    19ba:	87 95       	ror	r24
    19bc:	77 95       	ror	r23
    19be:	67 95       	ror	r22
    19c0:	b7 95       	ror	r27
    19c2:	f1 11       	cpse	r31, r1
    19c4:	f8 cf       	rjmp	.-16     	; 0x19b6 <__floatsisf+0x1c>
    19c6:	fa f4       	brpl	.+62     	; 0x1a06 <__floatsisf+0x6c>
    19c8:	bb 0f       	add	r27, r27
    19ca:	11 f4       	brne	.+4      	; 0x19d0 <__floatsisf+0x36>
    19cc:	60 ff       	sbrs	r22, 0
    19ce:	1b c0       	rjmp	.+54     	; 0x1a06 <__floatsisf+0x6c>
    19d0:	6f 5f       	subi	r22, 0xFF	; 255
    19d2:	7f 4f       	sbci	r23, 0xFF	; 255
    19d4:	8f 4f       	sbci	r24, 0xFF	; 255
    19d6:	9f 4f       	sbci	r25, 0xFF	; 255
    19d8:	16 c0       	rjmp	.+44     	; 0x1a06 <__floatsisf+0x6c>
    19da:	88 23       	and	r24, r24
    19dc:	11 f0       	breq	.+4      	; 0x19e2 <__floatsisf+0x48>
    19de:	96 e9       	ldi	r25, 0x96	; 150
    19e0:	11 c0       	rjmp	.+34     	; 0x1a04 <__floatsisf+0x6a>
    19e2:	77 23       	and	r23, r23
    19e4:	21 f0       	breq	.+8      	; 0x19ee <__floatsisf+0x54>
    19e6:	9e e8       	ldi	r25, 0x8E	; 142
    19e8:	87 2f       	mov	r24, r23
    19ea:	76 2f       	mov	r23, r22
    19ec:	05 c0       	rjmp	.+10     	; 0x19f8 <__floatsisf+0x5e>
    19ee:	66 23       	and	r22, r22
    19f0:	71 f0       	breq	.+28     	; 0x1a0e <__floatsisf+0x74>
    19f2:	96 e8       	ldi	r25, 0x86	; 134
    19f4:	86 2f       	mov	r24, r22
    19f6:	70 e0       	ldi	r23, 0x00	; 0
    19f8:	60 e0       	ldi	r22, 0x00	; 0
    19fa:	2a f0       	brmi	.+10     	; 0x1a06 <__floatsisf+0x6c>
    19fc:	9a 95       	dec	r25
    19fe:	66 0f       	add	r22, r22
    1a00:	77 1f       	adc	r23, r23
    1a02:	88 1f       	adc	r24, r24
    1a04:	da f7       	brpl	.-10     	; 0x19fc <__floatsisf+0x62>
    1a06:	88 0f       	add	r24, r24
    1a08:	96 95       	lsr	r25
    1a0a:	87 95       	ror	r24
    1a0c:	97 f9       	bld	r25, 7
    1a0e:	08 95       	ret

00001a10 <__fp_inf>:
    1a10:	97 f9       	bld	r25, 7
    1a12:	9f 67       	ori	r25, 0x7F	; 127
    1a14:	80 e8       	ldi	r24, 0x80	; 128
    1a16:	70 e0       	ldi	r23, 0x00	; 0
    1a18:	60 e0       	ldi	r22, 0x00	; 0
    1a1a:	08 95       	ret

00001a1c <__fp_nan>:
    1a1c:	9f ef       	ldi	r25, 0xFF	; 255
    1a1e:	80 ec       	ldi	r24, 0xC0	; 192
    1a20:	08 95       	ret

00001a22 <__fp_pscA>:
    1a22:	00 24       	eor	r0, r0
    1a24:	0a 94       	dec	r0
    1a26:	16 16       	cp	r1, r22
    1a28:	17 06       	cpc	r1, r23
    1a2a:	18 06       	cpc	r1, r24
    1a2c:	09 06       	cpc	r0, r25
    1a2e:	08 95       	ret

00001a30 <__fp_pscB>:
    1a30:	00 24       	eor	r0, r0
    1a32:	0a 94       	dec	r0
    1a34:	12 16       	cp	r1, r18
    1a36:	13 06       	cpc	r1, r19
    1a38:	14 06       	cpc	r1, r20
    1a3a:	05 06       	cpc	r0, r21
    1a3c:	08 95       	ret

00001a3e <__fp_round>:
    1a3e:	09 2e       	mov	r0, r25
    1a40:	03 94       	inc	r0
    1a42:	00 0c       	add	r0, r0
    1a44:	11 f4       	brne	.+4      	; 0x1a4a <__fp_round+0xc>
    1a46:	88 23       	and	r24, r24
    1a48:	52 f0       	brmi	.+20     	; 0x1a5e <__fp_round+0x20>
    1a4a:	bb 0f       	add	r27, r27
    1a4c:	40 f4       	brcc	.+16     	; 0x1a5e <__fp_round+0x20>
    1a4e:	bf 2b       	or	r27, r31
    1a50:	11 f4       	brne	.+4      	; 0x1a56 <__fp_round+0x18>
    1a52:	60 ff       	sbrs	r22, 0
    1a54:	04 c0       	rjmp	.+8      	; 0x1a5e <__fp_round+0x20>
    1a56:	6f 5f       	subi	r22, 0xFF	; 255
    1a58:	7f 4f       	sbci	r23, 0xFF	; 255
    1a5a:	8f 4f       	sbci	r24, 0xFF	; 255
    1a5c:	9f 4f       	sbci	r25, 0xFF	; 255
    1a5e:	08 95       	ret

00001a60 <__fp_split3>:
    1a60:	57 fd       	sbrc	r21, 7
    1a62:	90 58       	subi	r25, 0x80	; 128
    1a64:	44 0f       	add	r20, r20
    1a66:	55 1f       	adc	r21, r21
    1a68:	59 f0       	breq	.+22     	; 0x1a80 <__fp_splitA+0x10>
    1a6a:	5f 3f       	cpi	r21, 0xFF	; 255
    1a6c:	71 f0       	breq	.+28     	; 0x1a8a <__fp_splitA+0x1a>
    1a6e:	47 95       	ror	r20

00001a70 <__fp_splitA>:
    1a70:	88 0f       	add	r24, r24
    1a72:	97 fb       	bst	r25, 7
    1a74:	99 1f       	adc	r25, r25
    1a76:	61 f0       	breq	.+24     	; 0x1a90 <__fp_splitA+0x20>
    1a78:	9f 3f       	cpi	r25, 0xFF	; 255
    1a7a:	79 f0       	breq	.+30     	; 0x1a9a <__fp_splitA+0x2a>
    1a7c:	87 95       	ror	r24
    1a7e:	08 95       	ret
    1a80:	12 16       	cp	r1, r18
    1a82:	13 06       	cpc	r1, r19
    1a84:	14 06       	cpc	r1, r20
    1a86:	55 1f       	adc	r21, r21
    1a88:	f2 cf       	rjmp	.-28     	; 0x1a6e <__fp_split3+0xe>
    1a8a:	46 95       	lsr	r20
    1a8c:	f1 df       	rcall	.-30     	; 0x1a70 <__fp_splitA>
    1a8e:	08 c0       	rjmp	.+16     	; 0x1aa0 <__fp_splitA+0x30>
    1a90:	16 16       	cp	r1, r22
    1a92:	17 06       	cpc	r1, r23
    1a94:	18 06       	cpc	r1, r24
    1a96:	99 1f       	adc	r25, r25
    1a98:	f1 cf       	rjmp	.-30     	; 0x1a7c <__fp_splitA+0xc>
    1a9a:	86 95       	lsr	r24
    1a9c:	71 05       	cpc	r23, r1
    1a9e:	61 05       	cpc	r22, r1
    1aa0:	08 94       	sec
    1aa2:	08 95       	ret

00001aa4 <__fp_zero>:
    1aa4:	e8 94       	clt

00001aa6 <__fp_szero>:
    1aa6:	bb 27       	eor	r27, r27
    1aa8:	66 27       	eor	r22, r22
    1aaa:	77 27       	eor	r23, r23
    1aac:	cb 01       	movw	r24, r22
    1aae:	97 f9       	bld	r25, 7
    1ab0:	08 95       	ret

00001ab2 <__mulsf3>:
    1ab2:	0b d0       	rcall	.+22     	; 0x1aca <__mulsf3x>
    1ab4:	c4 cf       	rjmp	.-120    	; 0x1a3e <__fp_round>
    1ab6:	b5 df       	rcall	.-150    	; 0x1a22 <__fp_pscA>
    1ab8:	28 f0       	brcs	.+10     	; 0x1ac4 <__mulsf3+0x12>
    1aba:	ba df       	rcall	.-140    	; 0x1a30 <__fp_pscB>
    1abc:	18 f0       	brcs	.+6      	; 0x1ac4 <__mulsf3+0x12>
    1abe:	95 23       	and	r25, r21
    1ac0:	09 f0       	breq	.+2      	; 0x1ac4 <__mulsf3+0x12>
    1ac2:	a6 cf       	rjmp	.-180    	; 0x1a10 <__fp_inf>
    1ac4:	ab cf       	rjmp	.-170    	; 0x1a1c <__fp_nan>
    1ac6:	11 24       	eor	r1, r1
    1ac8:	ee cf       	rjmp	.-36     	; 0x1aa6 <__fp_szero>

00001aca <__mulsf3x>:
    1aca:	ca df       	rcall	.-108    	; 0x1a60 <__fp_split3>
    1acc:	a0 f3       	brcs	.-24     	; 0x1ab6 <__mulsf3+0x4>

00001ace <__mulsf3_pse>:
    1ace:	95 9f       	mul	r25, r21
    1ad0:	d1 f3       	breq	.-12     	; 0x1ac6 <__mulsf3+0x14>
    1ad2:	95 0f       	add	r25, r21
    1ad4:	50 e0       	ldi	r21, 0x00	; 0
    1ad6:	55 1f       	adc	r21, r21
    1ad8:	62 9f       	mul	r22, r18
    1ada:	f0 01       	movw	r30, r0
    1adc:	72 9f       	mul	r23, r18
    1ade:	bb 27       	eor	r27, r27
    1ae0:	f0 0d       	add	r31, r0
    1ae2:	b1 1d       	adc	r27, r1
    1ae4:	63 9f       	mul	r22, r19
    1ae6:	aa 27       	eor	r26, r26
    1ae8:	f0 0d       	add	r31, r0
    1aea:	b1 1d       	adc	r27, r1
    1aec:	aa 1f       	adc	r26, r26
    1aee:	64 9f       	mul	r22, r20
    1af0:	66 27       	eor	r22, r22
    1af2:	b0 0d       	add	r27, r0
    1af4:	a1 1d       	adc	r26, r1
    1af6:	66 1f       	adc	r22, r22
    1af8:	82 9f       	mul	r24, r18
    1afa:	22 27       	eor	r18, r18
    1afc:	b0 0d       	add	r27, r0
    1afe:	a1 1d       	adc	r26, r1
    1b00:	62 1f       	adc	r22, r18
    1b02:	73 9f       	mul	r23, r19
    1b04:	b0 0d       	add	r27, r0
    1b06:	a1 1d       	adc	r26, r1
    1b08:	62 1f       	adc	r22, r18
    1b0a:	83 9f       	mul	r24, r19
    1b0c:	a0 0d       	add	r26, r0
    1b0e:	61 1d       	adc	r22, r1
    1b10:	22 1f       	adc	r18, r18
    1b12:	74 9f       	mul	r23, r20
    1b14:	33 27       	eor	r19, r19
    1b16:	a0 0d       	add	r26, r0
    1b18:	61 1d       	adc	r22, r1
    1b1a:	23 1f       	adc	r18, r19
    1b1c:	84 9f       	mul	r24, r20
    1b1e:	60 0d       	add	r22, r0
    1b20:	21 1d       	adc	r18, r1
    1b22:	82 2f       	mov	r24, r18
    1b24:	76 2f       	mov	r23, r22
    1b26:	6a 2f       	mov	r22, r26
    1b28:	11 24       	eor	r1, r1
    1b2a:	9f 57       	subi	r25, 0x7F	; 127
    1b2c:	50 40       	sbci	r21, 0x00	; 0
    1b2e:	8a f0       	brmi	.+34     	; 0x1b52 <__mulsf3_pse+0x84>
    1b30:	e1 f0       	breq	.+56     	; 0x1b6a <__mulsf3_pse+0x9c>
    1b32:	88 23       	and	r24, r24
    1b34:	4a f0       	brmi	.+18     	; 0x1b48 <__mulsf3_pse+0x7a>
    1b36:	ee 0f       	add	r30, r30
    1b38:	ff 1f       	adc	r31, r31
    1b3a:	bb 1f       	adc	r27, r27
    1b3c:	66 1f       	adc	r22, r22
    1b3e:	77 1f       	adc	r23, r23
    1b40:	88 1f       	adc	r24, r24
    1b42:	91 50       	subi	r25, 0x01	; 1
    1b44:	50 40       	sbci	r21, 0x00	; 0
    1b46:	a9 f7       	brne	.-22     	; 0x1b32 <__mulsf3_pse+0x64>
    1b48:	9e 3f       	cpi	r25, 0xFE	; 254
    1b4a:	51 05       	cpc	r21, r1
    1b4c:	70 f0       	brcs	.+28     	; 0x1b6a <__mulsf3_pse+0x9c>
    1b4e:	60 cf       	rjmp	.-320    	; 0x1a10 <__fp_inf>
    1b50:	aa cf       	rjmp	.-172    	; 0x1aa6 <__fp_szero>
    1b52:	5f 3f       	cpi	r21, 0xFF	; 255
    1b54:	ec f3       	brlt	.-6      	; 0x1b50 <__mulsf3_pse+0x82>
    1b56:	98 3e       	cpi	r25, 0xE8	; 232
    1b58:	dc f3       	brlt	.-10     	; 0x1b50 <__mulsf3_pse+0x82>
    1b5a:	86 95       	lsr	r24
    1b5c:	77 95       	ror	r23
    1b5e:	67 95       	ror	r22
    1b60:	b7 95       	ror	r27
    1b62:	f7 95       	ror	r31
    1b64:	e7 95       	ror	r30
    1b66:	9f 5f       	subi	r25, 0xFF	; 255
    1b68:	c1 f7       	brne	.-16     	; 0x1b5a <__mulsf3_pse+0x8c>
    1b6a:	fe 2b       	or	r31, r30
    1b6c:	88 0f       	add	r24, r24
    1b6e:	91 1d       	adc	r25, r1
    1b70:	96 95       	lsr	r25
    1b72:	87 95       	ror	r24
    1b74:	97 f9       	bld	r25, 7
    1b76:	08 95       	ret

00001b78 <__mulsi3>:
    1b78:	62 9f       	mul	r22, r18
    1b7a:	d0 01       	movw	r26, r0
    1b7c:	73 9f       	mul	r23, r19
    1b7e:	f0 01       	movw	r30, r0
    1b80:	82 9f       	mul	r24, r18
    1b82:	e0 0d       	add	r30, r0
    1b84:	f1 1d       	adc	r31, r1
    1b86:	64 9f       	mul	r22, r20
    1b88:	e0 0d       	add	r30, r0
    1b8a:	f1 1d       	adc	r31, r1
    1b8c:	92 9f       	mul	r25, r18
    1b8e:	f0 0d       	add	r31, r0
    1b90:	83 9f       	mul	r24, r19
    1b92:	f0 0d       	add	r31, r0
    1b94:	74 9f       	mul	r23, r20
    1b96:	f0 0d       	add	r31, r0
    1b98:	65 9f       	mul	r22, r21
    1b9a:	f0 0d       	add	r31, r0
    1b9c:	99 27       	eor	r25, r25
    1b9e:	72 9f       	mul	r23, r18
    1ba0:	b0 0d       	add	r27, r0
    1ba2:	e1 1d       	adc	r30, r1
    1ba4:	f9 1f       	adc	r31, r25
    1ba6:	63 9f       	mul	r22, r19
    1ba8:	b0 0d       	add	r27, r0
    1baa:	e1 1d       	adc	r30, r1
    1bac:	f9 1f       	adc	r31, r25
    1bae:	bd 01       	movw	r22, r26
    1bb0:	cf 01       	movw	r24, r30
    1bb2:	11 24       	eor	r1, r1
    1bb4:	08 95       	ret

00001bb6 <_exit>:
    1bb6:	f8 94       	cli

00001bb8 <__stop_program>:
    1bb8:	ff cf       	rjmp	.-2      	; 0x1bb8 <__stop_program>
